Certificate:
    Data:
        Version: 3 (0x2)
        Serial Number:
            a9:ba:f4:4c:cf:ca:c8:9f
    Signature Algorithm: sha256WithRSAEncryption
        Issuer: C=SW, L=Stockholm, O=ACME, CN=OpenVPN-ACME-CA
        Validity
            Not Before: Mar  2 18:20:23 2016 GMT
            Not After : Mar  3 18:20:23 2016 GMT
        Subject: C=SW, L=Stockholm, O=ACME, CN=temp.acme.sw
        Subject Public Key Info:
            Public Key Algorithm: rsaEncryption
                Public-Key: (2048 bit)
                Modulus:
                    00:aa:9c:5b:bf:ce:52:a8:d8:08:fb:50:e4:56:5d:
                    38:c0:bc:0b:86:24:a2:74:a5:67:e0:27:b1:51:02:
                    85:b2:10:73:17:aa:90:45:91:c7:cc:c0:42:b0:41:
                    28:86:00:c0:cd:70:f2:e8:c0:57:2b:77:ca:3b:c3:
                    fb:2e:70:09:27:30:43:36:b8:08:f2:08:c8:13:a5:
                    35:47:8d:bd:98:e0:2f:7d:4a:34:98:40:60:6f:06:
                    d7:76:3e:7f:e8:97:87:aa:59:23:ad:2f:5d:8d:c1:
                    d8:fd:cb:01:e6:01:79:34:a8:47:9f:af:f3:b7:14:
                    76:11:8a:66:e8:4b:67:07:58:94:4e:42:46:35:9e:
                    8f:c5:20:34:74:51:79:ca:8d:c4:5c:be:c3:91:4c:
                    a4:0a:27:ef:ea:2c:d1:29:bb:60:ae:d1:85:fc:35:
                    95:4a:2e:30:8c:17:a6:9f:61:4e:59:7d:3e:dd:42:
                    b2:28:c5:ed:b2:3b:8e:6d:91:8a:31:3a:51:7b:c5:
                    2c:91:89:2f:be:d2:8d:6a:4d:c3:50:3c:fd:bf:04:
                    82:f6:df:45:fd:23:ec:38:87:27:2b:27:fc:e6:6d:
                    3d:b0:34:ab:25:25:50:d5:3c:6f:5c:a3:72:2b:08:
                    28:fa:8b:63:3c:b4:48:bc:a7:a0:31:29:70:7c:ae:
                    5a:21
                Exponent: 65537 (0x10001)
        X509v3 extensions:
            X509v3 Basic Constraints: 
                CA:FALSE
            Netscape Cert Type: 
                SSL Client
            X509v3 Key Usage: 
                Digital Signature
            X509v3 Extended Key Usage: 
                TLS Web Client Authentication
            X509v3 Subject Key Identifier: 
                A3:54:92:31:F8:0E:D9:96:78:BA:35:B0:BC:0A:CC:E2:BB:B2:6F:36
            X509v3 Authority Key Identifier: 
                keyid:62:1E:04:9A:97:BD:40:30:BF:C6:24:BD:9D:5C:9C:FB:EF:21:CB:E2

            X509v3 Subject Alternative Name: 
                email:hostmaster@acme.sw
    Signature Algorithm: sha256WithRSAEncryption
         0c:67:49:a7:a1:70:30:ce:5e:75:20:73:eb:dd:7a:8d:53:84:
         1a:b0:c0:d4:1d:90:c5:50:b4:ca:02:7b:54:d8:3d:81:ea:ff:
         df:80:ae:8c:22:cb:70:2a:8e:5c:80:ff:9a:14:5c:03:ca:a2:
         7c:b2:bd:e9:f6:d1:c8:d3:5a:70:b1:a7:23:3f:ce:01:6c:f6:
         91:39:5b:0d:87:18:23:a0:2e:0c:97:3f:17:8a:be:50:7e:3a:
         27:13:f9:a3:3a:47:f8:ea:73:c4:92:34:72:f2:9d:0b:b1:39:
         7b:63:14:76:88:ee:13:85:16:91:75:b3:f7:b9:65:22:ac:cb:
         6a:5e:9a:dd:7a:2b:31:d3:23:b1:34:80:9f:03:7e:b1:b8:d7:
         a1:57:60:0c:74:33:5c:48:a9:a3:9a:ae:72:f7:04:89:39:be:
         ee:df:9a:8f:bb:58:18:8e:59:0c:12:89:76:66:82:39:7d:95:
         4b:79:5d:fc:42:2f:c2:c9:a1:ba:90:49:e6:b3:48:34:15:a0:
         c9:91:b7:3d:81:95:94:2b:91:47:c1:a1:ae:a4:0b:71:81:96:
         65:01:51:8a:f1:92:2a:eb:c4:ae:91:84:75:e6:e8:53:65:0b:
         31:1f:1b:8a:20:0b:9b:39:dd:e2:f0:27:54:36:95:2e:81:14:
         98:34:e5:a6
-----BEGIN CERTIFICATE-----
MIIDtzCCAp+gAwIBAgIJAKm69EzPysifMA0GCSqGSIb3DQEBCwUAMEoxCzAJBgNV
BAYTAlNXMRIwEAYDVQQHDAlTdG9ja2hvbG0xDTALBgNVBAoMBEFDTUUxGDAWBgNV
BAMMD09wZW5WUE4tQUNNRS1DQTAeFw0xNjAzMDIxODIwMjNaFw0xNjAzMDMxODIw
MjNaMEcxCzAJBgNVBAYTAlNXMRIwEAYDVQQHDAlTdG9ja2hvbG0xDTALBgNVBAoM
BEFDTUUxFTATBgNVBAMMDHRlbXAuYWNtZS5zdzCCASIwDQYJKoZIhvcNAQEBBQAD
ggEPADCCAQoCggEBAKqcW7/OUqjYCPtQ5FZdOMC8C4YkonSlZ+AnsVEChbIQcxeq
kEWRx8zAQrBBKIYAwM1w8ujAVyt3yjvD+y5wCScwQza4CPIIyBOlNUeNvZjgL31K
NJhAYG8G13Y+f+iXh6pZI60vXY3B2P3LAeYBeTSoR5+v87cUdhGKZuhLZwdYlE5C
RjWej8UgNHRRecqNxFy+w5FMpAon7+os0Sm7YK7Rhfw1lUouMIwXpp9hTll9Pt1C
sijF7bI7jm2RijE6UXvFLJGJL77SjWpNw1A8/b8EgvbfRf0j7DiHJysn/OZtPbA0
qyUlUNU8b1yjcisIKPqLYzy0SLynoDEpcHyuWiECAwEAAaOBojCBnzAJBgNVHRME
AjAAMBEGCWCGSAGG+EIBAQQEAwIHgDALBgNVHQ8EBAMCB4AwEwYDVR0lBAwwCgYI
KwYBBQUHAwIwHQYDVR0OBBYEFKNUkjH4DtmWeLo1sLwKzOK7sm82MB8GA1UdIwQY
MBaAFGIeBJqXvUAwv8YkvZ1cnPvvIcviMB0GA1UdEQQWMBSBEmhvc3RtYXN0ZXJA
YWNtZS5zdzANBgkqhkiG9w0BAQsFAAOCAQEADGdJp6FwMM5edSBz6916jVOEGrDA
1B2QxVC0ygJ7VNg9ger/34CujCLLcCqOXID/mhRcA8qifLK96fbRyNNacLGnIz/O
AWz2kTlbDYcYI6AuDJc/F4q+UH46JxP5ozpH+OpzxJI0cvKdC7E5e2MUdojuE4UW
kXWz97llIqzLal6a3XorMdMjsTSAnwN+sbjXoVdgDHQzXEipo5qucvcEiTm+7t+a
j7tYGI5ZDBKJdmaCOX2VS3ld/EIvwsmhupBJ5rNINBWgyZG3PYGVlCuRR8GhrqQL
cYGWZQFRivGSKuvErpGEdeboU2ULMR8biiALmznd4vAnVDaVLoEUmDTlpg==
-----END CERTIFICATE-----
