Certificate:
    Data:
        Version: 3 (0x2)
        Serial Number:
            a9:ba:f4:4c:cf:ca:c8:c9
    Signature Algorithm: sha256WithRSAEncryption
        Issuer: C=SW, L=Stockholm, O=ACME, CN=OpenVPN-ACME-CA
        Validity
            Not Before: Mar  3 13:08:50 2016 GMT
            Not After : Mar  4 13:08:50 2016 GMT
        Subject: C=SW, L=Stockholm, O=ACME, CN=temporal_certificate.acme.sw
        Subject Public Key Info:
            Public Key Algorithm: rsaEncryption
                Public-Key: (2048 bit)
                Modulus:
                    00:cd:ad:9d:c1:cf:79:be:d7:20:62:93:f2:9b:e2:
                    78:90:95:f6:8d:0b:4b:40:e2:86:d6:b8:ca:da:da:
                    cf:ce:22:b6:77:a7:46:cc:7d:a1:34:a1:df:06:4d:
                    a5:9b:cd:a7:15:8d:e7:ea:25:8a:cd:54:c0:18:22:
                    f2:9f:4b:17:af:68:e1:f9:1e:4c:26:32:22:20:d1:
                    c9:41:8e:b8:2e:da:e1:1b:cb:c0:24:2c:7a:05:98:
                    e2:81:e0:10:a4:85:3d:c8:be:4d:36:b5:c0:31:9d:
                    b5:e8:c2:81:76:63:44:b7:c8:09:85:6f:aa:bf:a1:
                    3e:df:d8:d0:96:5e:52:29:2e:76:6d:86:aa:8a:ea:
                    d2:67:8b:f6:d1:15:53:73:e4:af:98:e9:eb:c3:73:
                    84:29:5f:6a:7c:ed:a2:cb:99:44:b4:2c:28:f3:8c:
                    21:ee:18:4e:44:9b:75:5e:41:c2:d5:05:16:92:83:
                    1b:dc:7b:a5:c3:83:4e:5a:50:17:da:55:ae:9a:8c:
                    14:ae:16:48:92:28:cb:de:90:f7:03:a5:ee:89:ac:
                    34:58:8f:17:24:8f:c2:a6:2a:83:21:a2:a2:0d:bf:
                    bf:71:8a:f1:5b:ee:75:cf:b0:8c:4d:68:db:0f:3c:
                    58:f1:10:d4:05:59:c2:78:0e:fa:9a:b8:da:d7:4f:
                    1b:c5
                Exponent: 65537 (0x10001)
        X509v3 extensions:
            X509v3 Basic Constraints: 
                CA:FALSE
            Netscape Cert Type: 
                SSL Client
            X509v3 Key Usage: 
                Digital Signature
            X509v3 Extended Key Usage: 
                TLS Web Client Authentication
            X509v3 Subject Key Identifier: 
                0E:D1:D7:EC:44:AB:B8:70:33:A9:E5:ED:97:A6:B9:2B:09:54:81:03
            X509v3 Authority Key Identifier: 
                keyid:62:1E:04:9A:97:BD:40:30:BF:C6:24:BD:9D:5C:9C:FB:EF:21:CB:E2

            X509v3 Subject Alternative Name: 
                email:hostmaster@acme.sw
    Signature Algorithm: sha256WithRSAEncryption
         9f:e6:8a:69:ff:bc:ac:d2:12:17:c4:9b:70:57:76:09:9b:16:
         08:c0:05:c2:4e:6a:01:83:dd:3f:a6:ee:c9:4f:dc:eb:57:92:
         32:45:b5:d3:d7:8c:62:14:1e:7f:7c:2e:00:0e:05:4b:1a:18:
         2a:ec:ee:16:60:da:a6:96:e4:1a:c9:b3:3a:de:ce:b0:a7:d4:
         a5:09:cc:66:e7:eb:27:a1:eb:79:93:b8:c7:a5:ba:ae:fc:90:
         be:45:cb:db:23:89:0f:8a:22:ae:9a:76:9c:e2:fc:a3:02:53:
         d5:72:19:a6:77:65:0f:af:2a:03:23:0e:e8:e2:d2:d6:4a:86:
         74:a6:ce:42:a7:85:36:15:73:cc:da:49:7a:34:ff:6b:95:ed:
         09:92:8b:d5:47:d4:4f:cb:71:f3:32:96:c3:5f:cd:19:1c:aa:
         48:68:2c:be:2a:8d:d9:7c:2c:ca:27:ce:65:0b:bf:21:e0:c5:
         f1:a0:5c:c9:8a:6b:a5:dc:fd:c4:20:9e:a6:ce:04:4f:6f:6c:
         a4:5b:c0:dd:c2:ca:6a:13:9a:de:61:c7:34:f0:da:70:6d:fe:
         6f:0f:4e:6a:91:1b:a4:c6:96:3d:45:5d:ac:cd:19:34:d0:f9:
         4e:39:2c:16:4c:c8:ec:2b:57:f6:4c:35:89:b9:f3:4b:f1:05:
         59:e5:1b:79
-----BEGIN CERTIFICATE-----
MIIDxzCCAq+gAwIBAgIJAKm69EzPysjJMA0GCSqGSIb3DQEBCwUAMEoxCzAJBgNV
BAYTAlNXMRIwEAYDVQQHDAlTdG9ja2hvbG0xDTALBgNVBAoMBEFDTUUxGDAWBgNV
BAMMD09wZW5WUE4tQUNNRS1DQTAeFw0xNjAzMDMxMzA4NTBaFw0xNjAzMDQxMzA4
NTBaMFcxCzAJBgNVBAYTAlNXMRIwEAYDVQQHDAlTdG9ja2hvbG0xDTALBgNVBAoM
BEFDTUUxJTAjBgNVBAMMHHRlbXBvcmFsX2NlcnRpZmljYXRlLmFjbWUuc3cwggEi
MA0GCSqGSIb3DQEBAQUAA4IBDwAwggEKAoIBAQDNrZ3Bz3m+1yBik/Kb4niQlfaN
C0tA4obWuMra2s/OIrZ3p0bMfaE0od8GTaWbzacVjefqJYrNVMAYIvKfSxevaOH5
HkwmMiIg0clBjrgu2uEby8AkLHoFmOKB4BCkhT3Ivk02tcAxnbXowoF2Y0S3yAmF
b6q/oT7f2NCWXlIpLnZthqqK6tJni/bRFVNz5K+Y6evDc4QpX2p87aLLmUS0LCjz
jCHuGE5Em3VeQcLVBRaSgxvce6XDg05aUBfaVa6ajBSuFkiSKMvekPcDpe6JrDRY
jxckj8KmKoMhoqINv79xivFb7nXPsIxNaNsPPFjxENQFWcJ4DvqauNrXTxvFAgMB
AAGjgaIwgZ8wCQYDVR0TBAIwADARBglghkgBhvhCAQEEBAMCB4AwCwYDVR0PBAQD
AgeAMBMGA1UdJQQMMAoGCCsGAQUFBwMCMB0GA1UdDgQWBBQO0dfsRKu4cDOp5e2X
prkrCVSBAzAfBgNVHSMEGDAWgBRiHgSal71AML/GJL2dXJz77yHL4jAdBgNVHREE
FjAUgRJob3N0bWFzdGVyQGFjbWUuc3cwDQYJKoZIhvcNAQELBQADggEBAJ/mimn/
vKzSEhfEm3BXdgmbFgjABcJOagGD3T+m7slP3OtXkjJFtdPXjGIUHn98LgAOBUsa
GCrs7hZg2qaW5BrJszrezrCn1KUJzGbn6yeh63mTuMeluq78kL5Fy9sjiQ+KIq6a
dpzi/KMCU9VyGaZ3ZQ+vKgMjDuji0tZKhnSmzkKnhTYVc8zaSXo0/2uV7QmSi9VH
1E/LcfMylsNfzRkcqkhoLL4qjdl8LMonzmULvyHgxfGgXMmKa6Xc/cQgnqbOBE9v
bKRbwN3CymoTmt5hxzTw2nBt/m8PTmqRG6TGlj1FXazNGTTQ+U45LBZMyOwrV/ZM
NYm580vxBVnlG3k=
-----END CERTIFICATE-----
