Certificate:
    Data:
        Version: 3 (0x2)
        Serial Number:
            a9:ba:f4:4c:cf:ca:c8:a8
    Signature Algorithm: sha256WithRSAEncryption
        Issuer: C=SW, L=Stockholm, O=ACME, CN=OpenVPN-ACME-CA
        Validity
            Not Before: Mar  2 18:48:01 2016 GMT
            Not After : Mar  3 18:48:01 2016 GMT
        Subject: C=SW, L=Stockholm, O=ACME, CN=temp.acme.sw
        Subject Public Key Info:
            Public Key Algorithm: rsaEncryption
                Public-Key: (2048 bit)
                Modulus:
                    00:cc:ee:22:fa:1f:8f:cc:14:4a:1b:66:ba:b1:b2:
                    32:46:08:01:20:a2:3d:ba:c3:c8:ad:1b:b4:41:50:
                    11:2e:0c:e7:2e:7d:31:63:5d:7a:ab:b7:d5:49:dd:
                    8b:b8:8f:d8:69:88:91:60:31:a0:5f:ec:27:ea:2c:
                    e7:4d:76:38:db:54:42:76:c9:16:ba:d6:b6:71:29:
                    72:1b:1a:66:72:c9:e6:2e:89:3d:43:cd:a5:4b:66:
                    43:d1:d3:be:13:f2:92:45:a7:06:80:59:22:74:ed:
                    29:dc:c5:2d:6d:bc:d5:7e:64:7d:02:54:09:99:61:
                    4c:9a:72:23:67:de:77:06:45:8e:8e:20:15:98:4e:
                    4c:b6:4e:26:42:4b:df:23:00:f0:22:4b:61:4b:d8:
                    cf:65:56:08:40:fc:42:aa:b6:f1:4f:8b:8c:45:f0:
                    37:7b:3a:e8:31:87:a6:61:40:eb:76:49:0c:66:69:
                    cc:f7:ef:4b:08:3f:17:42:39:d1:29:c7:9f:9b:5a:
                    e5:2a:47:bc:2b:8e:d9:ab:be:61:2f:94:de:93:6f:
                    25:01:4a:a6:eb:a4:28:67:f1:99:2c:3f:8a:a0:57:
                    ba:d1:95:8a:d9:c2:ad:aa:95:54:04:8c:7c:37:99:
                    e0:9e:88:e9:4b:e4:fc:34:94:bc:99:85:c4:e9:fc:
                    fe:ad
                Exponent: 65537 (0x10001)
        X509v3 extensions:
            X509v3 Basic Constraints: 
                CA:FALSE
            Netscape Cert Type: 
                SSL Client
            X509v3 Key Usage: 
                Digital Signature
            X509v3 Extended Key Usage: 
                TLS Web Client Authentication
            X509v3 Subject Key Identifier: 
                E9:53:7F:9F:22:EF:3E:AA:A0:F9:4E:BA:64:54:AA:21:F4:D2:40:BD
            X509v3 Authority Key Identifier: 
                keyid:62:1E:04:9A:97:BD:40:30:BF:C6:24:BD:9D:5C:9C:FB:EF:21:CB:E2

            X509v3 Subject Alternative Name: 
                email:hostmaster@acme.sw
    Signature Algorithm: sha256WithRSAEncryption
         49:74:30:8a:5e:2f:3c:eb:5c:74:ec:eb:d3:6a:8d:5c:cf:62:
         53:d5:bb:87:e9:8d:2e:ed:b2:c5:25:c7:2b:b2:5f:75:fd:30:
         ea:23:43:96:7e:75:11:c0:12:c0:6b:c4:30:23:63:b7:5a:18:
         2d:f1:4b:61:ef:5f:a6:09:b3:5f:13:88:21:d1:4d:2e:98:60:
         29:99:a0:15:41:97:4f:c1:8e:7c:e3:e6:3a:a2:53:35:b6:aa:
         58:a3:7f:f2:31:ac:c5:79:a9:75:6c:e5:cb:c8:e0:08:64:bd:
         6e:66:3a:13:90:31:63:a7:88:70:30:e9:46:c9:01:c2:30:a0:
         9d:8c:73:8e:b7:e7:05:bd:fa:f2:6b:7b:6d:1c:5e:60:8d:3a:
         80:9b:7c:a3:b2:c4:64:c7:2d:b3:0d:4f:3a:0a:57:f1:bd:0b:
         9f:46:39:fc:26:03:66:de:1e:ab:fc:79:e1:6b:8c:a7:7b:2b:
         35:45:13:56:a6:65:97:3d:1c:e1:60:23:03:0e:68:1d:18:7f:
         8f:0a:de:f4:4a:bf:78:58:df:d3:c8:2b:c5:9e:20:9e:90:c5:
         55:fc:91:13:1a:f1:33:dd:65:5b:bb:0f:15:30:15:ac:d6:09:
         d7:e8:30:c2:67:cd:ad:27:1c:b4:e5:d9:86:9e:69:34:b1:c3:
         ec:e1:54:88
-----BEGIN CERTIFICATE-----
MIIDtzCCAp+gAwIBAgIJAKm69EzPysioMA0GCSqGSIb3DQEBCwUAMEoxCzAJBgNV
BAYTAlNXMRIwEAYDVQQHDAlTdG9ja2hvbG0xDTALBgNVBAoMBEFDTUUxGDAWBgNV
BAMMD09wZW5WUE4tQUNNRS1DQTAeFw0xNjAzMDIxODQ4MDFaFw0xNjAzMDMxODQ4
MDFaMEcxCzAJBgNVBAYTAlNXMRIwEAYDVQQHDAlTdG9ja2hvbG0xDTALBgNVBAoM
BEFDTUUxFTATBgNVBAMMDHRlbXAuYWNtZS5zdzCCASIwDQYJKoZIhvcNAQEBBQAD
ggEPADCCAQoCggEBAMzuIvofj8wUShtmurGyMkYIASCiPbrDyK0btEFQES4M5y59
MWNdequ31Undi7iP2GmIkWAxoF/sJ+os5012ONtUQnbJFrrWtnEpchsaZnLJ5i6J
PUPNpUtmQ9HTvhPykkWnBoBZInTtKdzFLW281X5kfQJUCZlhTJpyI2fedwZFjo4g
FZhOTLZOJkJL3yMA8CJLYUvYz2VWCED8Qqq28U+LjEXwN3s66DGHpmFA63ZJDGZp
zPfvSwg/F0I50SnHn5ta5SpHvCuO2au+YS+U3pNvJQFKpuukKGfxmSw/iqBXutGV
itnCraqVVASMfDeZ4J6I6Uvk/DSUvJmFxOn8/q0CAwEAAaOBojCBnzAJBgNVHRME
AjAAMBEGCWCGSAGG+EIBAQQEAwIHgDALBgNVHQ8EBAMCB4AwEwYDVR0lBAwwCgYI
KwYBBQUHAwIwHQYDVR0OBBYEFOlTf58i7z6qoPlOumRUqiH00kC9MB8GA1UdIwQY
MBaAFGIeBJqXvUAwv8YkvZ1cnPvvIcviMB0GA1UdEQQWMBSBEmhvc3RtYXN0ZXJA
YWNtZS5zdzANBgkqhkiG9w0BAQsFAAOCAQEASXQwil4vPOtcdOzr02qNXM9iU9W7
h+mNLu2yxSXHK7Jfdf0w6iNDln51EcASwGvEMCNjt1oYLfFLYe9fpgmzXxOIIdFN
LphgKZmgFUGXT8GOfOPmOqJTNbaqWKN/8jGsxXmpdWzly8jgCGS9bmY6E5AxY6eI
cDDpRskBwjCgnYxzjrfnBb368mt7bRxeYI06gJt8o7LEZMctsw1POgpX8b0Ln0Y5
/CYDZt4eq/x54WuMp3srNUUTVqZllz0c4WAjAw5oHRh/jwre9Eq/eFjf08grxZ4g
npDFVfyRExrxM91lW7sPFTAVrNYJ1+gwwmfNrScctOXZhp5pNLHD7OFUiA==
-----END CERTIFICATE-----
