Certificate:
    Data:
        Version: 3 (0x2)
        Serial Number:
            a9:ba:f4:4c:cf:ca:c8:a9
    Signature Algorithm: sha256WithRSAEncryption
        Issuer: C=SW, L=Stockholm, O=ACME, CN=OpenVPN-ACME-CA
        Validity
            Not Before: Mar  2 18:49:34 2016 GMT
            Not After : Mar  3 18:49:34 2016 GMT
        Subject: C=SW, L=Stockholm, O=ACME, CN=temp.acme.sw
        Subject Public Key Info:
            Public Key Algorithm: rsaEncryption
                Public-Key: (2048 bit)
                Modulus:
                    00:9e:68:97:e5:6d:f4:c0:4b:12:cd:62:18:4c:48:
                    83:00:42:99:54:d7:6b:82:c2:64:7c:d8:ab:f4:e2:
                    ab:7e:7e:a6:31:fa:c1:50:5f:45:64:06:f2:f5:25:
                    ac:89:db:9c:58:bd:84:0b:05:15:09:51:98:4f:a7:
                    af:c7:d1:41:00:fe:20:81:37:fb:b0:e1:93:25:90:
                    ad:5d:ee:ff:81:d8:44:c8:58:7f:ea:51:22:24:64:
                    8e:c9:fc:0c:ca:a5:ae:76:bb:f1:a7:94:b0:ef:62:
                    b8:6d:c1:1d:82:9d:fb:89:4b:1e:88:49:b6:50:60:
                    52:a0:de:73:0c:c6:fd:19:00:ee:07:73:18:b3:ec:
                    e2:d9:42:72:1f:b7:3c:ee:c0:27:4c:80:4c:09:82:
                    2b:2e:6e:49:6d:43:c6:84:68:07:dd:03:1f:87:94:
                    4a:13:32:cf:44:5f:e7:e1:13:51:c3:01:77:74:c4:
                    8a:a1:73:50:97:8e:4c:76:8a:14:db:fa:0a:ad:4d:
                    1f:f0:35:88:d3:47:8b:b8:54:2a:62:c3:f2:17:62:
                    a4:7e:55:cc:d5:a8:6f:ef:dc:bb:3a:90:98:0e:e3:
                    af:71:32:d0:3e:00:91:f5:34:7f:9c:61:b3:9f:22:
                    bc:3b:d6:4e:3a:a9:ce:5c:5c:c9:5d:46:a5:8c:95:
                    74:55
                Exponent: 65537 (0x10001)
        X509v3 extensions:
            X509v3 Basic Constraints: 
                CA:FALSE
            Netscape Cert Type: 
                SSL Client
            X509v3 Key Usage: 
                Digital Signature
            X509v3 Extended Key Usage: 
                TLS Web Client Authentication
            X509v3 Subject Key Identifier: 
                1E:54:40:60:17:50:71:E7:81:F7:B7:00:44:50:EE:48:38:8B:82:F9
            X509v3 Authority Key Identifier: 
                keyid:62:1E:04:9A:97:BD:40:30:BF:C6:24:BD:9D:5C:9C:FB:EF:21:CB:E2

            X509v3 Subject Alternative Name: 
                email:hostmaster@acme.sw
    Signature Algorithm: sha256WithRSAEncryption
         7d:af:cd:2d:af:2c:5b:ab:a5:d8:25:5a:47:e3:1a:1f:8a:ea:
         62:07:9e:4a:22:26:a6:84:1d:2f:d5:ee:bb:0d:b9:43:54:59:
         b3:99:88:f1:3e:7f:de:20:74:b2:48:a5:90:5b:98:2d:cf:c4:
         f5:c1:77:04:90:36:df:ea:50:06:a6:e4:b6:e0:7b:f2:ce:70:
         c4:a4:d3:e3:bf:fe:4b:54:41:9b:13:4d:6d:2e:1b:ba:df:cb:
         81:8f:59:28:d5:e1:1f:aa:56:6f:27:dd:9e:6b:7a:ae:0e:8c:
         76:99:f5:9c:11:3d:36:f9:59:58:03:c4:2a:e7:86:06:9c:c0:
         99:81:c0:77:73:98:4b:18:aa:4b:e4:b3:96:1e:db:c3:ff:4b:
         cd:50:65:02:aa:c7:9d:2e:00:f5:b9:a4:10:9f:68:b1:57:c4:
         84:dd:d3:37:7b:25:03:d9:8c:65:05:e6:82:e1:83:21:1c:24:
         66:89:60:5d:99:0f:22:e9:32:10:b2:32:88:35:30:dc:80:49:
         60:45:4d:e4:35:73:14:da:53:47:93:ec:00:c7:e6:88:c2:10:
         b1:1d:3f:7d:af:ff:2e:41:6c:50:7f:93:d0:5f:7b:33:12:4c:
         f2:bc:db:24:8f:9e:da:72:5e:0f:4e:f5:f8:27:7a:b2:fb:20:
         bb:df:f8:18
-----BEGIN CERTIFICATE-----
MIIDtzCCAp+gAwIBAgIJAKm69EzPysipMA0GCSqGSIb3DQEBCwUAMEoxCzAJBgNV
BAYTAlNXMRIwEAYDVQQHDAlTdG9ja2hvbG0xDTALBgNVBAoMBEFDTUUxGDAWBgNV
BAMMD09wZW5WUE4tQUNNRS1DQTAeFw0xNjAzMDIxODQ5MzRaFw0xNjAzMDMxODQ5
MzRaMEcxCzAJBgNVBAYTAlNXMRIwEAYDVQQHDAlTdG9ja2hvbG0xDTALBgNVBAoM
BEFDTUUxFTATBgNVBAMMDHRlbXAuYWNtZS5zdzCCASIwDQYJKoZIhvcNAQEBBQAD
ggEPADCCAQoCggEBAJ5ol+Vt9MBLEs1iGExIgwBCmVTXa4LCZHzYq/Tiq35+pjH6
wVBfRWQG8vUlrInbnFi9hAsFFQlRmE+nr8fRQQD+IIE3+7DhkyWQrV3u/4HYRMhY
f+pRIiRkjsn8DMqlrna78aeUsO9iuG3BHYKd+4lLHohJtlBgUqDecwzG/RkA7gdz
GLPs4tlCch+3PO7AJ0yATAmCKy5uSW1DxoRoB90DH4eUShMyz0Rf5+ETUcMBd3TE
iqFzUJeOTHaKFNv6Cq1NH/A1iNNHi7hUKmLD8hdipH5VzNWob+/cuzqQmA7jr3Ey
0D4AkfU0f5xhs58ivDvWTjqpzlxcyV1GpYyVdFUCAwEAAaOBojCBnzAJBgNVHRME
AjAAMBEGCWCGSAGG+EIBAQQEAwIHgDALBgNVHQ8EBAMCB4AwEwYDVR0lBAwwCgYI
KwYBBQUHAwIwHQYDVR0OBBYEFB5UQGAXUHHngfe3AERQ7kg4i4L5MB8GA1UdIwQY
MBaAFGIeBJqXvUAwv8YkvZ1cnPvvIcviMB0GA1UdEQQWMBSBEmhvc3RtYXN0ZXJA
YWNtZS5zdzANBgkqhkiG9w0BAQsFAAOCAQEAfa/NLa8sW6ul2CVaR+MaH4rqYgee
SiImpoQdL9Xuuw25Q1RZs5mI8T5/3iB0skilkFuYLc/E9cF3BJA23+pQBqbktuB7
8s5wxKTT47/+S1RBmxNNbS4but/LgY9ZKNXhH6pWbyfdnmt6rg6Mdpn1nBE9NvlZ
WAPEKueGBpzAmYHAd3OYSxiqS+Szlh7bw/9LzVBlAqrHnS4A9bmkEJ9osVfEhN3T
N3slA9mMZQXmguGDIRwkZolgXZkPIukyELIyiDUw3IBJYEVN5DVzFNpTR5PsAMfm
iMIQsR0/fa//LkFsUH+T0F97MxJM8rzbJI+e2nJeD071+Cd6svsgu9/4GA==
-----END CERTIFICATE-----
