Certificate:
    Data:
        Version: 3 (0x2)
        Serial Number:
            a9:ba:f4:4c:cf:ca:c8:ad
    Signature Algorithm: sha256WithRSAEncryption
        Issuer: C=SW, L=Stockholm, O=ACME, CN=OpenVPN-ACME-CA
        Validity
            Not Before: Mar  3 12:42:08 2016 GMT
            Not After : Mar  4 12:42:08 2016 GMT
        Subject: C=SW, L=Stockholm, O=ACME, CN=temporal_certificate.acme.sw
        Subject Public Key Info:
            Public Key Algorithm: rsaEncryption
                Public-Key: (2048 bit)
                Modulus:
                    00:9f:5d:01:0c:21:e4:dc:b2:87:b6:01:7a:64:a3:
                    7c:10:34:13:1d:fa:5a:4f:2a:5e:5a:a6:89:6e:72:
                    2e:93:57:6a:bf:03:d9:52:c3:0d:d7:bd:f9:d4:60:
                    0e:dc:66:31:3f:fe:75:32:ca:59:d4:83:97:f4:81:
                    fc:c1:aa:6b:10:3c:c1:17:fc:29:94:bb:c1:da:38:
                    91:b5:25:10:d9:99:f9:f6:c4:7d:5b:32:8b:15:60:
                    40:d1:c0:ed:44:4b:7e:10:a5:a8:e5:7a:4e:2a:68:
                    50:6c:c6:22:fc:6d:51:14:32:fa:1e:92:0f:80:ea:
                    59:4e:dc:5f:3f:57:cd:37:e4:0d:be:7f:44:65:5b:
                    e2:42:99:5c:ec:44:6d:3a:96:2d:0f:ee:9d:d9:9e:
                    68:de:ac:f4:f5:49:9f:c3:40:80:13:c6:c3:52:63:
                    2e:45:9d:f8:ab:32:65:34:3e:41:83:cd:f2:47:75:
                    20:a7:7c:fa:40:0f:a0:52:e8:1c:15:97:7b:66:57:
                    5a:a2:c8:6d:a4:97:8f:db:30:6f:9b:72:46:53:ae:
                    29:2d:c1:7b:8b:15:24:f7:e3:95:ec:e6:36:01:df:
                    c8:05:bd:46:af:26:89:01:ef:4c:9e:9a:0d:82:fc:
                    9f:e5:73:10:75:2f:36:3d:95:85:5a:e6:04:35:c7:
                    0f:15
                Exponent: 65537 (0x10001)
        X509v3 extensions:
            X509v3 Basic Constraints: 
                CA:FALSE
            Netscape Cert Type: 
                SSL Client
            X509v3 Key Usage: 
                Digital Signature
            X509v3 Extended Key Usage: 
                TLS Web Client Authentication
            X509v3 Subject Key Identifier: 
                A5:97:4C:F1:57:DD:E6:78:E6:9C:E3:E6:A8:D7:77:D5:53:D4:DF:B0
            X509v3 Authority Key Identifier: 
                keyid:62:1E:04:9A:97:BD:40:30:BF:C6:24:BD:9D:5C:9C:FB:EF:21:CB:E2

            X509v3 Subject Alternative Name: 
                email:hostmaster@acme.sw
    Signature Algorithm: sha256WithRSAEncryption
         22:11:d5:73:8d:13:c0:6e:34:98:14:16:de:55:f3:16:c7:57:
         64:ae:2b:a4:36:9b:92:0e:8d:04:0a:13:1d:67:c7:43:a1:56:
         bd:71:ff:e7:a3:53:94:aa:1b:df:31:39:72:88:75:ee:13:6c:
         31:f5:97:97:e2:5a:f5:19:43:3d:dd:d3:e9:66:d4:16:a1:94:
         af:fb:3e:a8:a4:3c:bb:0c:83:b0:fa:fe:99:c0:28:fb:04:4b:
         92:a7:8c:3f:6f:e8:c5:be:6e:db:52:61:a1:c3:2e:10:50:17:
         5a:90:d3:2f:15:52:ca:51:03:37:5a:ab:db:0b:2e:76:c1:23:
         11:05:e8:ad:2e:3d:5d:89:2c:01:a0:04:43:33:51:b9:84:7e:
         bb:55:c4:3d:15:e8:42:62:cf:de:d1:ba:a1:02:c1:80:04:4e:
         06:d3:ce:62:3a:42:39:c1:5b:9c:53:7d:eb:0b:5c:8a:3d:f0:
         62:8b:91:c2:b6:46:9e:d6:ab:0a:54:33:4f:d7:c3:ea:d4:e9:
         cc:43:7f:72:4b:5f:f4:de:12:17:a8:4d:df:26:13:aa:da:77:
         cb:c9:12:69:1f:eb:40:78:a8:44:16:95:88:09:8a:d3:08:ea:
         87:5b:6b:51:0a:55:4f:83:13:9b:b7:87:d5:b1:59:b5:70:83:
         48:87:73:93
-----BEGIN CERTIFICATE-----
MIIDxzCCAq+gAwIBAgIJAKm69EzPysitMA0GCSqGSIb3DQEBCwUAMEoxCzAJBgNV
BAYTAlNXMRIwEAYDVQQHDAlTdG9ja2hvbG0xDTALBgNVBAoMBEFDTUUxGDAWBgNV
BAMMD09wZW5WUE4tQUNNRS1DQTAeFw0xNjAzMDMxMjQyMDhaFw0xNjAzMDQxMjQy
MDhaMFcxCzAJBgNVBAYTAlNXMRIwEAYDVQQHDAlTdG9ja2hvbG0xDTALBgNVBAoM
BEFDTUUxJTAjBgNVBAMMHHRlbXBvcmFsX2NlcnRpZmljYXRlLmFjbWUuc3cwggEi
MA0GCSqGSIb3DQEBAQUAA4IBDwAwggEKAoIBAQCfXQEMIeTcsoe2AXpko3wQNBMd
+lpPKl5apoluci6TV2q/A9lSww3XvfnUYA7cZjE//nUyylnUg5f0gfzBqmsQPMEX
/CmUu8HaOJG1JRDZmfn2xH1bMosVYEDRwO1ES34Qpajlek4qaFBsxiL8bVEUMvoe
kg+A6llO3F8/V8035A2+f0RlW+JCmVzsRG06li0P7p3ZnmjerPT1SZ/DQIATxsNS
Yy5FnfirMmU0PkGDzfJHdSCnfPpAD6BS6BwVl3tmV1qiyG2kl4/bMG+bckZTrikt
wXuLFST345Xs5jYB38gFvUavJokB70yemg2C/J/lcxB1LzY9lYVa5gQ1xw8VAgMB
AAGjgaIwgZ8wCQYDVR0TBAIwADARBglghkgBhvhCAQEEBAMCB4AwCwYDVR0PBAQD
AgeAMBMGA1UdJQQMMAoGCCsGAQUFBwMCMB0GA1UdDgQWBBSll0zxV93meOac4+ao
13fVU9TfsDAfBgNVHSMEGDAWgBRiHgSal71AML/GJL2dXJz77yHL4jAdBgNVHREE
FjAUgRJob3N0bWFzdGVyQGFjbWUuc3cwDQYJKoZIhvcNAQELBQADggEBACIR1XON
E8BuNJgUFt5V8xbHV2SuK6Q2m5IOjQQKEx1nx0OhVr1x/+ejU5SqG98xOXKIde4T
bDH1l5fiWvUZQz3d0+lm1BahlK/7PqikPLsMg7D6/pnAKPsES5KnjD9v6MW+bttS
YaHDLhBQF1qQ0y8VUspRAzdaq9sLLnbBIxEF6K0uPV2JLAGgBEMzUbmEfrtVxD0V
6EJiz97RuqECwYAETgbTzmI6QjnBW5xTfesLXIo98GKLkcK2Rp7WqwpUM0/Xw+rU
6cxDf3JLX/TeEheoTd8mE6rad8vJEmkf60B4qEQWlYgJitMI6odba1EKVU+DE5u3
h9WxWbVwg0iHc5M=
-----END CERTIFICATE-----
