Certificate:
    Data:
        Version: 3 (0x2)
        Serial Number:
            a9:ba:f4:4c:cf:ca:c8:d1
    Signature Algorithm: sha256WithRSAEncryption
        Issuer: C=SW, L=Stockholm, O=ACME, CN=OpenVPN-ACME-CA
        Validity
            Not Before: Mar  3 13:21:46 2016 GMT
            Not After : Mar  4 13:21:46 2016 GMT
        Subject: C=SW, L=Stockholm, O=ACME, CN=temporal_certificate.acme.sw
        Subject Public Key Info:
            Public Key Algorithm: rsaEncryption
                Public-Key: (2048 bit)
                Modulus:
                    00:bc:1c:85:77:b2:6c:e8:62:38:01:55:77:cf:37:
                    be:84:c0:da:49:8e:fa:85:0c:da:66:5a:e3:66:71:
                    5f:d6:5f:11:88:6d:37:47:b3:b8:57:be:09:f7:39:
                    85:ea:c1:11:8d:3e:67:26:ef:86:6d:41:a3:d6:72:
                    70:dc:2f:df:85:8e:f4:ea:0f:7b:83:0c:4e:bd:32:
                    b6:a0:69:9a:56:e6:86:b7:ad:95:d6:8f:cf:a8:4e:
                    7b:09:97:1b:33:68:e5:af:3e:1f:0c:76:74:63:3a:
                    5e:ff:58:08:ca:32:4d:12:73:5e:14:30:0b:18:9b:
                    d1:fe:da:0b:98:26:90:fd:0a:f0:58:44:7d:8a:60:
                    cb:16:26:09:0c:b8:45:a6:ec:f5:19:3f:97:80:30:
                    90:bb:91:d6:2f:05:f2:b4:35:75:18:d4:60:84:aa:
                    60:3d:53:bf:1b:f1:a7:24:e2:23:0d:84:50:9e:9d:
                    f5:f2:9f:af:bb:7d:da:52:47:2a:5f:d0:a9:b7:1f:
                    e4:a3:47:3c:61:e6:cf:39:0e:85:54:a4:5e:74:84:
                    f1:06:c4:81:d7:ed:f3:b4:eb:f4:47:7f:3e:81:0f:
                    2b:e1:3c:8d:b4:f6:09:f6:f5:cd:90:ec:c2:28:06:
                    d2:56:64:55:be:a1:1a:ab:4f:47:e6:e1:56:9f:a8:
                    70:fd
                Exponent: 65537 (0x10001)
        X509v3 extensions:
            X509v3 Basic Constraints: 
                CA:FALSE
            Netscape Cert Type: 
                SSL Client
            X509v3 Key Usage: 
                Digital Signature
            X509v3 Extended Key Usage: 
                TLS Web Client Authentication
            X509v3 Subject Key Identifier: 
                20:05:ED:7B:26:BF:4D:2A:71:1A:F2:9C:9E:0C:73:48:5F:D6:56:8F
            X509v3 Authority Key Identifier: 
                keyid:62:1E:04:9A:97:BD:40:30:BF:C6:24:BD:9D:5C:9C:FB:EF:21:CB:E2

            X509v3 Subject Alternative Name: 
                email:hostmaster@acme.sw
    Signature Algorithm: sha256WithRSAEncryption
         40:30:47:3a:ad:e8:c9:3d:1d:5c:f1:63:01:71:e3:5f:c7:86:
         60:77:c7:da:2c:b9:bc:1f:aa:c3:11:11:73:f4:02:1f:f2:89:
         b4:5c:36:84:bc:fa:e5:8c:30:26:25:45:9f:cd:b7:e8:86:56:
         3f:2d:8f:47:ed:8f:2d:c2:55:3b:a9:c2:49:a7:2e:92:ea:e0:
         db:b9:d1:50:0a:5d:0e:62:7b:b9:6c:62:28:b5:e3:45:67:5b:
         24:4d:2d:29:d3:bf:59:3a:0d:d1:8a:fe:36:b1:45:cb:ca:59:
         08:5e:10:db:f7:aa:64:ac:f8:32:2f:f0:2b:6b:c7:02:24:b0:
         00:fb:ac:a0:eb:f2:01:48:1f:f2:c4:49:7b:d2:f4:2e:c8:60:
         27:15:87:6e:31:e6:87:51:ff:42:d0:7f:6d:d6:c0:f4:9a:2d:
         9d:ec:c9:65:e3:94:1d:42:41:88:75:73:12:ad:bb:7c:92:69:
         7e:11:5e:8b:94:7f:bb:1c:83:04:cb:52:65:e7:72:37:a0:10:
         86:6d:84:3c:42:a3:cf:ba:0c:dc:0f:52:58:da:59:ac:a1:b1:
         2f:bc:9f:87:fd:8c:69:08:55:d0:a2:b4:f2:1a:92:14:0b:a8:
         e0:ea:0a:b7:7c:b0:b9:6f:14:78:96:e8:bf:10:93:c1:a6:84:
         8e:f0:9b:2a
-----BEGIN CERTIFICATE-----
MIIDxzCCAq+gAwIBAgIJAKm69EzPysjRMA0GCSqGSIb3DQEBCwUAMEoxCzAJBgNV
BAYTAlNXMRIwEAYDVQQHDAlTdG9ja2hvbG0xDTALBgNVBAoMBEFDTUUxGDAWBgNV
BAMMD09wZW5WUE4tQUNNRS1DQTAeFw0xNjAzMDMxMzIxNDZaFw0xNjAzMDQxMzIx
NDZaMFcxCzAJBgNVBAYTAlNXMRIwEAYDVQQHDAlTdG9ja2hvbG0xDTALBgNVBAoM
BEFDTUUxJTAjBgNVBAMMHHRlbXBvcmFsX2NlcnRpZmljYXRlLmFjbWUuc3cwggEi
MA0GCSqGSIb3DQEBAQUAA4IBDwAwggEKAoIBAQC8HIV3smzoYjgBVXfPN76EwNpJ
jvqFDNpmWuNmcV/WXxGIbTdHs7hXvgn3OYXqwRGNPmcm74ZtQaPWcnDcL9+FjvTq
D3uDDE69MragaZpW5oa3rZXWj8+oTnsJlxszaOWvPh8MdnRjOl7/WAjKMk0Sc14U
MAsYm9H+2guYJpD9CvBYRH2KYMsWJgkMuEWm7PUZP5eAMJC7kdYvBfK0NXUY1GCE
qmA9U78b8ack4iMNhFCenfXyn6+7fdpSRypf0Km3H+SjRzxh5s85DoVUpF50hPEG
xIHX7fO06/RHfz6BDyvhPI209gn29c2Q7MIoBtJWZFW+oRqrT0fm4VafqHD9AgMB
AAGjgaIwgZ8wCQYDVR0TBAIwADARBglghkgBhvhCAQEEBAMCB4AwCwYDVR0PBAQD
AgeAMBMGA1UdJQQMMAoGCCsGAQUFBwMCMB0GA1UdDgQWBBQgBe17Jr9NKnEa8pye
DHNIX9ZWjzAfBgNVHSMEGDAWgBRiHgSal71AML/GJL2dXJz77yHL4jAdBgNVHREE
FjAUgRJob3N0bWFzdGVyQGFjbWUuc3cwDQYJKoZIhvcNAQELBQADggEBAEAwRzqt
6Mk9HVzxYwFx41/HhmB3x9osubwfqsMREXP0Ah/yibRcNoS8+uWMMCYlRZ/Nt+iG
Vj8tj0ftjy3CVTupwkmnLpLq4Nu50VAKXQ5ie7lsYii140VnWyRNLSnTv1k6DdGK
/jaxRcvKWQheENv3qmSs+DIv8CtrxwIksAD7rKDr8gFIH/LESXvS9C7IYCcVh24x
5odR/0LQf23WwPSaLZ3syWXjlB1CQYh1cxKtu3ySaX4RXouUf7scgwTLUmXncjeg
EIZthDxCo8+6DNwPUljaWayhsS+8n4f9jGkIVdCitPIakhQLqODqCrd8sLlvFHiW
6L8Qk8GmhI7wmyo=
-----END CERTIFICATE-----
