Certificate:
    Data:
        Version: 3 (0x2)
        Serial Number:
            a9:ba:f4:4c:cf:ca:c8:d0
    Signature Algorithm: sha256WithRSAEncryption
        Issuer: C=SW, L=Stockholm, O=ACME, CN=OpenVPN-ACME-CA
        Validity
            Not Before: Mar  3 13:21:35 2016 GMT
            Not After : Mar  4 13:21:35 2016 GMT
        Subject: C=SW, L=Stockholm, O=ACME, CN=temporal_certificate.acme.sw
        Subject Public Key Info:
            Public Key Algorithm: rsaEncryption
                Public-Key: (2048 bit)
                Modulus:
                    00:b4:18:18:bd:61:e6:0d:69:80:0d:e4:85:7c:47:
                    e0:55:79:0a:11:a9:de:bb:93:93:6c:b0:5d:6a:ef:
                    f0:f0:1b:b3:69:80:f0:47:92:4c:47:34:77:9a:dc:
                    5f:e7:7b:1d:c7:52:a1:3f:e2:50:30:89:92:ea:28:
                    d1:c5:b9:fb:0b:78:a5:7c:23:c9:04:77:a5:bd:1c:
                    ca:be:f6:a4:71:56:c3:3e:9c:08:48:04:b1:8e:34:
                    9b:4a:78:e6:7a:fc:f5:f1:65:69:91:87:6b:04:b9:
                    65:0b:e6:8e:31:9f:83:23:05:81:35:44:d3:16:ae:
                    7b:48:71:86:9e:b5:a8:90:12:0d:1d:aa:5b:9e:82:
                    38:61:45:52:e5:74:c5:bc:00:e4:18:db:ec:5d:f8:
                    87:d9:84:20:d7:25:86:f3:2b:92:ea:25:0e:ef:a3:
                    62:45:73:ef:c1:ff:e4:39:61:7c:7c:19:ac:0c:b6:
                    4f:88:6d:a3:60:b3:dd:7f:0e:ad:dc:d5:3c:29:59:
                    41:ab:f8:be:f6:5c:66:ae:b6:7e:40:1a:cc:7c:aa:
                    16:fa:79:ef:3e:04:f9:90:e4:74:55:1f:68:21:b3:
                    32:27:3e:28:a5:65:cc:1e:7e:ec:5f:fd:78:97:f0:
                    07:ba:bd:f6:74:70:13:f6:b0:f1:1f:3d:f8:e7:0d:
                    6f:67
                Exponent: 65537 (0x10001)
        X509v3 extensions:
            X509v3 Basic Constraints: 
                CA:FALSE
            Netscape Cert Type: 
                SSL Client
            X509v3 Key Usage: 
                Digital Signature
            X509v3 Extended Key Usage: 
                TLS Web Client Authentication
            X509v3 Subject Key Identifier: 
                D3:23:45:C1:DA:16:87:2D:CA:89:BA:31:AA:AE:9F:65:FC:C3:AF:35
            X509v3 Authority Key Identifier: 
                keyid:62:1E:04:9A:97:BD:40:30:BF:C6:24:BD:9D:5C:9C:FB:EF:21:CB:E2

            X509v3 Subject Alternative Name: 
                email:hostmaster@acme.sw
    Signature Algorithm: sha256WithRSAEncryption
         b0:5d:ae:04:5d:57:6b:ba:81:9b:a3:ef:61:fc:27:95:24:19:
         d4:f1:a5:7d:26:99:d8:9a:d0:22:15:1f:20:51:e4:22:2e:57:
         97:2f:d9:3b:f3:51:04:cf:d9:eb:1f:af:20:ec:89:78:2b:fb:
         c3:55:13:c6:a0:0f:c5:ee:06:a0:d7:5b:c7:05:cd:b5:86:82:
         2b:8f:4a:9c:58:6a:8a:2c:7c:4a:84:76:93:2a:d9:f3:84:ed:
         57:ca:2d:07:d5:b4:ba:53:76:fc:2a:74:c5:1b:7d:46:78:2e:
         38:5b:d2:52:e4:4d:a6:15:33:61:b3:c3:11:9e:7d:bb:30:1a:
         f0:67:a5:57:ac:67:e0:65:68:e1:44:22:74:c8:15:48:8c:ad:
         ad:2a:e1:7b:9a:2b:e0:33:4f:34:be:7b:ce:d5:1e:c2:d3:40:
         24:e8:e5:39:d4:78:0c:5c:c4:1d:34:c7:31:da:ad:b0:ee:3a:
         2c:27:bc:aa:89:70:aa:2e:72:ef:11:e6:2b:59:30:aa:0c:91:
         4e:d4:92:ff:be:a1:09:b9:17:74:eb:19:ee:b3:21:19:58:2f:
         82:4b:b6:d3:bd:5f:ab:53:56:4d:c4:b3:0c:7e:c3:13:9e:ab:
         0a:fa:5d:0d:e7:15:3d:46:94:6b:11:d0:86:b2:d2:c3:a9:a2:
         c4:1a:e3:cb
-----BEGIN CERTIFICATE-----
MIIDxzCCAq+gAwIBAgIJAKm69EzPysjQMA0GCSqGSIb3DQEBCwUAMEoxCzAJBgNV
BAYTAlNXMRIwEAYDVQQHDAlTdG9ja2hvbG0xDTALBgNVBAoMBEFDTUUxGDAWBgNV
BAMMD09wZW5WUE4tQUNNRS1DQTAeFw0xNjAzMDMxMzIxMzVaFw0xNjAzMDQxMzIx
MzVaMFcxCzAJBgNVBAYTAlNXMRIwEAYDVQQHDAlTdG9ja2hvbG0xDTALBgNVBAoM
BEFDTUUxJTAjBgNVBAMMHHRlbXBvcmFsX2NlcnRpZmljYXRlLmFjbWUuc3cwggEi
MA0GCSqGSIb3DQEBAQUAA4IBDwAwggEKAoIBAQC0GBi9YeYNaYAN5IV8R+BVeQoR
qd67k5NssF1q7/DwG7NpgPBHkkxHNHea3F/nex3HUqE/4lAwiZLqKNHFufsLeKV8
I8kEd6W9HMq+9qRxVsM+nAhIBLGONJtKeOZ6/PXxZWmRh2sEuWUL5o4xn4MjBYE1
RNMWrntIcYaetaiQEg0dqluegjhhRVLldMW8AOQY2+xd+IfZhCDXJYbzK5LqJQ7v
o2JFc+/B/+Q5YXx8GawMtk+IbaNgs91/Dq3c1TwpWUGr+L72XGautn5AGsx8qhb6
ee8+BPmQ5HRVH2ghszInPiilZcwefuxf/XiX8Ae6vfZ0cBP2sPEfPfjnDW9nAgMB
AAGjgaIwgZ8wCQYDVR0TBAIwADARBglghkgBhvhCAQEEBAMCB4AwCwYDVR0PBAQD
AgeAMBMGA1UdJQQMMAoGCCsGAQUFBwMCMB0GA1UdDgQWBBTTI0XB2haHLcqJujGq
rp9l/MOvNTAfBgNVHSMEGDAWgBRiHgSal71AML/GJL2dXJz77yHL4jAdBgNVHREE
FjAUgRJob3N0bWFzdGVyQGFjbWUuc3cwDQYJKoZIhvcNAQELBQADggEBALBdrgRd
V2u6gZuj72H8J5UkGdTxpX0mmdia0CIVHyBR5CIuV5cv2TvzUQTP2esfryDsiXgr
+8NVE8agD8XuBqDXW8cFzbWGgiuPSpxYaoosfEqEdpMq2fOE7VfKLQfVtLpTdvwq
dMUbfUZ4Ljhb0lLkTaYVM2GzwxGefbswGvBnpVesZ+BlaOFEInTIFUiMra0q4Xua
K+AzTzS+e87VHsLTQCTo5TnUeAxcxB00xzHarbDuOiwnvKqJcKoucu8R5itZMKoM
kU7Ukv++oQm5F3TrGe6zIRlYL4JLttO9X6tTVk3Eswx+wxOeqwr6XQ3nFT1GlGsR
0Iay0sOposQa48s=
-----END CERTIFICATE-----
