Certificate:
    Data:
        Version: 3 (0x2)
        Serial Number:
            a9:ba:f4:4c:cf:ca:c8:c3
    Signature Algorithm: sha256WithRSAEncryption
        Issuer: C=SW, L=Stockholm, O=ACME, CN=OpenVPN-ACME-CA
        Validity
            Not Before: Mar  3 13:06:57 2016 GMT
            Not After : Mar  4 13:06:57 2016 GMT
        Subject: C=SW, L=Stockholm, O=ACME, CN=temporal_certificate.acme.sw
        Subject Public Key Info:
            Public Key Algorithm: rsaEncryption
                Public-Key: (2048 bit)
                Modulus:
                    00:ab:36:c1:a6:88:e9:18:f5:c1:46:64:fb:91:3c:
                    c4:3f:52:6b:0f:f9:d2:6e:2e:97:44:35:4b:0c:13:
                    f4:5e:71:38:b9:e9:ab:28:2c:74:80:c8:8f:6a:d9:
                    4b:d9:41:3e:e0:d1:71:1c:cf:5c:31:03:0e:c7:5a:
                    c6:f2:74:e5:8f:e4:aa:68:e5:c5:44:bb:bb:3d:4f:
                    fe:e1:45:8f:dc:54:0e:bb:36:bb:a7:80:6f:14:bb:
                    ac:d7:4c:e3:25:5c:c3:4e:1a:56:3f:ee:c7:b9:c1:
                    56:94:ae:75:2a:01:d7:33:60:19:ab:0a:cc:61:e2:
                    7f:ea:3f:c1:fb:e8:43:91:d7:81:b3:74:0d:5c:d9:
                    6b:20:e6:72:b3:f4:99:56:4c:79:bc:48:90:db:c4:
                    e3:77:33:f9:9d:87:a3:b4:f7:d6:0d:a5:0f:ec:a6:
                    e9:45:75:fa:b2:ca:df:3a:75:d6:75:c1:8d:8e:01:
                    d1:bc:47:c3:66:8c:cc:4e:21:be:27:6d:22:10:19:
                    3d:a4:b4:1c:ed:1d:ab:c5:60:b4:4c:da:ee:cb:fb:
                    9d:e4:0d:7a:ce:d2:ae:8b:51:62:87:c1:4b:22:c4:
                    e0:33:27:9e:4d:b7:8d:eb:76:da:d2:f0:4d:26:2a:
                    5d:e8:d6:96:ce:ed:93:f0:d4:99:75:bb:b8:60:03:
                    f8:61
                Exponent: 65537 (0x10001)
        X509v3 extensions:
            X509v3 Basic Constraints: 
                CA:FALSE
            Netscape Cert Type: 
                SSL Client
            X509v3 Key Usage: 
                Digital Signature
            X509v3 Extended Key Usage: 
                TLS Web Client Authentication
            X509v3 Subject Key Identifier: 
                60:28:16:A8:40:9C:9E:36:46:94:EE:19:96:5F:6E:21:55:C4:E0:11
            X509v3 Authority Key Identifier: 
                keyid:62:1E:04:9A:97:BD:40:30:BF:C6:24:BD:9D:5C:9C:FB:EF:21:CB:E2

            X509v3 Subject Alternative Name: 
                email:hostmaster@acme.sw
    Signature Algorithm: sha256WithRSAEncryption
         0c:c6:2d:68:41:d4:c9:22:70:1b:80:37:08:3b:e7:e9:b9:0b:
         af:d4:94:2c:a0:bf:b3:99:46:4b:a9:f4:6d:e9:19:2d:42:86:
         2a:8b:b6:e2:6f:e3:84:bc:ae:ec:b9:44:a7:16:0c:6d:a1:63:
         9c:19:00:db:dc:42:76:77:09:7f:8b:d6:9d:a6:de:3f:7a:23:
         1c:c4:45:a6:88:cd:9a:da:17:66:f8:98:73:3b:1c:af:28:bf:
         2d:61:7c:36:1e:ee:bf:9c:18:d5:f6:55:f8:28:56:fa:7b:13:
         88:97:be:a6:32:c5:3c:89:e6:48:3a:a6:2d:13:92:5c:da:d6:
         49:b0:1b:39:7e:13:66:ee:12:e1:8e:25:4b:95:46:4d:28:d0:
         7c:2e:26:ad:8f:1b:5f:6a:be:2f:85:66:bd:af:72:2e:3d:a2:
         47:43:c0:db:b7:b8:a4:f8:b4:f4:c7:40:e9:9d:c9:af:7e:6f:
         ce:fd:76:68:78:6a:a1:53:0a:3d:0a:8b:44:55:13:05:27:f2:
         06:c5:1c:8f:9b:39:93:85:be:2c:73:0c:ad:ca:6e:b2:a4:05:
         4c:99:47:b9:c5:e2:79:01:43:7c:97:2b:24:64:84:13:25:84:
         b7:93:d9:27:3b:e6:9c:9a:81:9a:b0:90:ae:9c:3b:87:dc:ed:
         e2:22:be:0c
-----BEGIN CERTIFICATE-----
MIIDxzCCAq+gAwIBAgIJAKm69EzPysjDMA0GCSqGSIb3DQEBCwUAMEoxCzAJBgNV
BAYTAlNXMRIwEAYDVQQHDAlTdG9ja2hvbG0xDTALBgNVBAoMBEFDTUUxGDAWBgNV
BAMMD09wZW5WUE4tQUNNRS1DQTAeFw0xNjAzMDMxMzA2NTdaFw0xNjAzMDQxMzA2
NTdaMFcxCzAJBgNVBAYTAlNXMRIwEAYDVQQHDAlTdG9ja2hvbG0xDTALBgNVBAoM
BEFDTUUxJTAjBgNVBAMMHHRlbXBvcmFsX2NlcnRpZmljYXRlLmFjbWUuc3cwggEi
MA0GCSqGSIb3DQEBAQUAA4IBDwAwggEKAoIBAQCrNsGmiOkY9cFGZPuRPMQ/UmsP
+dJuLpdENUsME/RecTi56asoLHSAyI9q2UvZQT7g0XEcz1wxAw7HWsbydOWP5Kpo
5cVEu7s9T/7hRY/cVA67NrungG8Uu6zXTOMlXMNOGlY/7se5wVaUrnUqAdczYBmr
Csxh4n/qP8H76EOR14GzdA1c2Wsg5nKz9JlWTHm8SJDbxON3M/mdh6O099YNpQ/s
pulFdfqyyt86ddZ1wY2OAdG8R8NmjMxOIb4nbSIQGT2ktBztHavFYLRM2u7L+53k
DXrO0q6LUWKHwUsixOAzJ55Nt43rdtrS8E0mKl3o1pbO7ZPw1Jl1u7hgA/hhAgMB
AAGjgaIwgZ8wCQYDVR0TBAIwADARBglghkgBhvhCAQEEBAMCB4AwCwYDVR0PBAQD
AgeAMBMGA1UdJQQMMAoGCCsGAQUFBwMCMB0GA1UdDgQWBBRgKBaoQJyeNkaU7hmW
X24hVcTgETAfBgNVHSMEGDAWgBRiHgSal71AML/GJL2dXJz77yHL4jAdBgNVHREE
FjAUgRJob3N0bWFzdGVyQGFjbWUuc3cwDQYJKoZIhvcNAQELBQADggEBAAzGLWhB
1MkicBuANwg75+m5C6/UlCygv7OZRkup9G3pGS1ChiqLtuJv44S8ruy5RKcWDG2h
Y5wZANvcQnZ3CX+L1p2m3j96IxzERaaIzZraF2b4mHM7HK8ovy1hfDYe7r+cGNX2
VfgoVvp7E4iXvqYyxTyJ5kg6pi0Tklza1kmwGzl+E2buEuGOJUuVRk0o0HwuJq2P
G19qvi+FZr2vci49okdDwNu3uKT4tPTHQOmdya9+b879dmh4aqFTCj0Ki0RVEwUn
8gbFHI+bOZOFvixzDK3KbrKkBUyZR7nF4nkBQ3yXKyRkhBMlhLeT2Sc75pyagZqw
kK6cO4fc7eIivgw=
-----END CERTIFICATE-----
