Certificate:
    Data:
        Version: 3 (0x2)
        Serial Number:
            a9:ba:f4:4c:cf:ca:c8:b8
    Signature Algorithm: sha256WithRSAEncryption
        Issuer: C=SW, L=Stockholm, O=ACME, CN=OpenVPN-ACME-CA
        Validity
            Not Before: Mar  3 13:02:14 2016 GMT
            Not After : Mar  4 13:02:14 2016 GMT
        Subject: C=SW, L=Stockholm, O=ACME, CN=temporal_certificate.acme.sw
        Subject Public Key Info:
            Public Key Algorithm: rsaEncryption
                Public-Key: (2048 bit)
                Modulus:
                    00:d3:3f:9e:81:cb:7f:04:d8:e8:bb:99:fb:39:ef:
                    e7:f0:07:66:44:ce:2a:6e:af:3c:9f:12:0b:29:86:
                    15:15:3e:c9:25:42:c2:58:df:b8:12:91:c8:ac:8c:
                    7e:f6:f1:58:da:e9:7c:41:b1:a3:2c:2d:07:c5:13:
                    5b:af:07:fd:14:38:82:52:39:84:b9:02:7a:97:ef:
                    e0:76:8d:a4:c9:51:bb:89:50:89:59:2b:db:18:23:
                    ca:52:86:c9:0f:9c:84:31:92:57:4f:72:d8:c0:1f:
                    90:c3:5b:46:7a:5c:72:15:7d:2e:91:27:0e:0b:08:
                    b1:ba:70:4c:8d:51:5c:9c:b0:82:87:7a:e4:80:d1:
                    8a:2c:1d:69:03:0a:97:c1:34:3d:4b:44:0f:35:78:
                    04:2d:53:67:2c:dd:ab:54:f0:30:cb:98:9c:fe:97:
                    5c:aa:02:6a:69:df:d0:f6:3f:c3:af:df:8b:f1:db:
                    5d:a9:db:97:80:ee:f0:88:7c:6b:80:c6:5f:ed:18:
                    8c:6e:48:df:f6:db:f4:27:d5:42:b0:d4:26:51:09:
                    6b:40:72:6d:be:46:15:08:72:9c:23:3f:ca:79:2e:
                    60:9a:06:c8:61:88:2f:99:b7:8e:28:16:97:f6:69:
                    53:7d:22:70:45:a4:9b:ea:5b:94:44:ea:64:f6:a6:
                    d0:cf
                Exponent: 65537 (0x10001)
        X509v3 extensions:
            X509v3 Basic Constraints: 
                CA:FALSE
            Netscape Cert Type: 
                SSL Client
            X509v3 Key Usage: 
                Digital Signature
            X509v3 Extended Key Usage: 
                TLS Web Client Authentication
            X509v3 Subject Key Identifier: 
                C7:3C:A4:98:A8:60:EF:53:8D:63:B2:39:E0:83:E0:7C:B1:B2:F6:D6
            X509v3 Authority Key Identifier: 
                keyid:62:1E:04:9A:97:BD:40:30:BF:C6:24:BD:9D:5C:9C:FB:EF:21:CB:E2

            X509v3 Subject Alternative Name: 
                email:hostmaster@acme.sw
    Signature Algorithm: sha256WithRSAEncryption
         18:0f:fa:df:7c:33:a4:d1:b0:42:60:5c:de:28:20:20:56:c1:
         8c:cc:22:31:d9:b3:45:ec:fc:37:39:6c:f2:93:59:23:5d:99:
         2d:7a:45:8b:86:b6:8e:b2:01:11:52:69:19:0c:64:fc:12:0b:
         70:d6:2e:14:27:98:d8:e2:2c:ae:86:bc:4b:22:68:7b:d7:7c:
         73:bb:ed:45:5c:29:af:7e:42:f8:fc:e3:5a:78:e3:29:68:28:
         c1:cb:fa:4b:26:3e:6d:0e:be:39:47:1f:59:e4:81:6a:8a:73:
         0e:f0:37:e9:9d:4b:c3:d5:75:ac:94:81:ad:73:b1:82:d5:e2:
         73:b2:4b:f6:5c:0e:7c:db:b0:1d:c7:eb:8e:10:ad:3e:b1:42:
         48:df:4f:da:55:61:31:2e:07:c3:40:92:88:45:d6:ec:4f:fc:
         37:a1:1e:4f:9e:42:26:65:34:e1:2b:1f:9a:49:f2:5c:cd:05:
         ca:46:76:db:2e:d2:3b:69:a7:17:ed:c9:b7:9f:c5:6d:40:70:
         d0:4c:3e:d6:fd:3f:60:dc:ce:25:03:05:4d:61:dd:b4:2b:a1:
         78:b4:87:7d:ff:6c:25:a6:2d:3a:d2:ab:cb:9d:5f:5c:27:94:
         7d:74:75:ea:7e:7c:10:f3:f6:2a:de:5c:4b:aa:73:3f:3f:82:
         57:1a:fd:e4
-----BEGIN CERTIFICATE-----
MIIDxzCCAq+gAwIBAgIJAKm69EzPysi4MA0GCSqGSIb3DQEBCwUAMEoxCzAJBgNV
BAYTAlNXMRIwEAYDVQQHDAlTdG9ja2hvbG0xDTALBgNVBAoMBEFDTUUxGDAWBgNV
BAMMD09wZW5WUE4tQUNNRS1DQTAeFw0xNjAzMDMxMzAyMTRaFw0xNjAzMDQxMzAy
MTRaMFcxCzAJBgNVBAYTAlNXMRIwEAYDVQQHDAlTdG9ja2hvbG0xDTALBgNVBAoM
BEFDTUUxJTAjBgNVBAMMHHRlbXBvcmFsX2NlcnRpZmljYXRlLmFjbWUuc3cwggEi
MA0GCSqGSIb3DQEBAQUAA4IBDwAwggEKAoIBAQDTP56By38E2Oi7mfs57+fwB2ZE
zipurzyfEgsphhUVPsklQsJY37gSkcisjH728Vja6XxBsaMsLQfFE1uvB/0UOIJS
OYS5AnqX7+B2jaTJUbuJUIlZK9sYI8pShskPnIQxkldPctjAH5DDW0Z6XHIVfS6R
Jw4LCLG6cEyNUVycsIKHeuSA0YosHWkDCpfBND1LRA81eAQtU2cs3atU8DDLmJz+
l1yqAmpp39D2P8Ov34vx212p25eA7vCIfGuAxl/tGIxuSN/22/Qn1UKw1CZRCWtA
cm2+RhUIcpwjP8p5LmCaBshhiC+Zt44oFpf2aVN9InBFpJvqW5RE6mT2ptDPAgMB
AAGjgaIwgZ8wCQYDVR0TBAIwADARBglghkgBhvhCAQEEBAMCB4AwCwYDVR0PBAQD
AgeAMBMGA1UdJQQMMAoGCCsGAQUFBwMCMB0GA1UdDgQWBBTHPKSYqGDvU41jsjng
g+B8sbL21jAfBgNVHSMEGDAWgBRiHgSal71AML/GJL2dXJz77yHL4jAdBgNVHREE
FjAUgRJob3N0bWFzdGVyQGFjbWUuc3cwDQYJKoZIhvcNAQELBQADggEBABgP+t98
M6TRsEJgXN4oICBWwYzMIjHZs0Xs/Dc5bPKTWSNdmS16RYuGto6yARFSaRkMZPwS
C3DWLhQnmNjiLK6GvEsiaHvXfHO77UVcKa9+Qvj841p44yloKMHL+ksmPm0OvjlH
H1nkgWqKcw7wN+mdS8PVdayUga1zsYLV4nOyS/ZcDnzbsB3H644QrT6xQkjfT9pV
YTEuB8NAkohF1uxP/DehHk+eQiZlNOErH5pJ8lzNBcpGdtsu0jtppxftybefxW1A
cNBMPtb9P2DcziUDBU1h3bQroXi0h33/bCWmLTrSq8udX1wnlH10dep+fBDz9ire
XEuqcz8/glca/eQ=
-----END CERTIFICATE-----
