Certificate:
    Data:
        Version: 3 (0x2)
        Serial Number:
            a9:ba:f4:4c:cf:ca:c8:be
    Signature Algorithm: sha256WithRSAEncryption
        Issuer: C=SW, L=Stockholm, O=ACME, CN=OpenVPN-ACME-CA
        Validity
            Not Before: Mar  3 13:06:18 2016 GMT
            Not After : Mar  4 13:06:18 2016 GMT
        Subject: C=SW, L=Stockholm, O=ACME, CN=temporal_certificate.acme.sw
        Subject Public Key Info:
            Public Key Algorithm: rsaEncryption
                Public-Key: (2048 bit)
                Modulus:
                    00:cd:d0:cf:12:09:77:b6:ed:c7:fa:cd:d9:87:ae:
                    c6:c2:ca:80:1e:e1:ba:2b:27:79:3d:6e:9e:f9:6b:
                    ca:aa:04:52:59:4b:e9:71:02:a1:91:d4:26:58:17:
                    ac:d1:70:18:9e:1e:af:f4:82:73:1d:02:4a:56:3b:
                    e8:3a:32:a4:32:2a:12:6c:81:77:49:ec:fd:84:89:
                    c9:ae:36:92:06:31:2b:dd:00:f3:d2:7c:f5:90:ca:
                    bc:4d:d2:6d:58:82:bc:a6:b5:9b:f1:fe:7e:6f:30:
                    f9:3f:5c:ae:c5:e2:19:a9:47:dd:1e:5b:2d:a1:79:
                    d2:b8:1a:ef:af:6f:d1:30:13:39:bb:57:67:b3:a2:
                    cf:1b:09:05:1f:7c:a2:93:82:cc:9a:f6:33:b6:37:
                    ee:b3:d2:ed:3f:1c:16:b1:76:4f:6f:ff:25:8d:3b:
                    d3:ce:38:b9:e7:77:3d:80:7b:ee:df:12:dd:fd:c0:
                    a0:22:99:17:27:ef:da:76:56:ae:13:71:e4:1a:5c:
                    2e:73:31:ee:af:7b:19:de:6c:c1:1f:4a:c0:da:54:
                    f6:5c:38:30:74:c8:b6:cf:ae:4e:9e:45:aa:7c:cb:
                    2f:95:23:a5:f7:98:ce:0e:ac:aa:76:2a:85:ae:25:
                    13:a0:94:a3:52:9f:eb:4c:c8:6c:de:bd:f9:b1:a5:
                    f5:33
                Exponent: 65537 (0x10001)
        X509v3 extensions:
            X509v3 Basic Constraints: 
                CA:FALSE
            Netscape Cert Type: 
                SSL Client
            X509v3 Key Usage: 
                Digital Signature
            X509v3 Extended Key Usage: 
                TLS Web Client Authentication
            X509v3 Subject Key Identifier: 
                0C:E1:D6:8B:26:74:8C:17:9F:93:45:A8:8D:45:B4:3E:11:DE:68:F7
            X509v3 Authority Key Identifier: 
                keyid:62:1E:04:9A:97:BD:40:30:BF:C6:24:BD:9D:5C:9C:FB:EF:21:CB:E2

            X509v3 Subject Alternative Name: 
                email:hostmaster@acme.sw
    Signature Algorithm: sha256WithRSAEncryption
         91:6a:40:36:f4:80:4a:a5:a0:26:ce:fa:e3:b4:23:fe:45:22:
         e4:6e:c0:8d:d9:16:7c:77:94:43:6f:1c:3b:54:f3:ae:5c:6e:
         7d:ef:1c:76:90:5e:2c:35:f2:74:ab:0f:9b:fa:1d:c8:26:71:
         ea:eb:99:3d:ec:b8:05:25:96:40:cf:9a:de:a5:68:49:8a:b6:
         f7:69:14:18:32:7d:e1:54:b2:0a:74:65:41:2d:10:20:2e:8c:
         aa:f6:ef:7e:48:a1:94:53:44:e6:c8:3b:74:7f:de:df:2a:6a:
         cb:d4:57:55:0a:33:95:9d:44:6c:d4:6a:e2:5d:13:13:c3:f1:
         ea:57:39:12:47:c1:0d:00:ec:5d:46:85:7a:91:34:a3:25:f6:
         34:bd:f2:6b:50:35:15:69:30:1e:22:ed:69:ae:1e:b9:4a:7f:
         e3:01:29:db:3d:25:91:40:9a:9a:d5:d8:20:a8:a2:34:54:88:
         91:2f:0d:6e:8f:df:da:56:75:50:dd:9a:28:65:17:a5:5d:58:
         75:90:dc:87:56:9f:44:d1:ca:fd:4a:56:ec:89:ae:33:df:98:
         ae:c3:65:3a:86:c8:02:cd:32:82:28:8e:49:6c:ae:9c:99:0d:
         1c:b3:82:6a:a0:be:8b:cf:44:cf:d5:42:e3:99:bf:41:66:8c:
         a6:b0:4f:a2
-----BEGIN CERTIFICATE-----
MIIDxzCCAq+gAwIBAgIJAKm69EzPysi+MA0GCSqGSIb3DQEBCwUAMEoxCzAJBgNV
BAYTAlNXMRIwEAYDVQQHDAlTdG9ja2hvbG0xDTALBgNVBAoMBEFDTUUxGDAWBgNV
BAMMD09wZW5WUE4tQUNNRS1DQTAeFw0xNjAzMDMxMzA2MThaFw0xNjAzMDQxMzA2
MThaMFcxCzAJBgNVBAYTAlNXMRIwEAYDVQQHDAlTdG9ja2hvbG0xDTALBgNVBAoM
BEFDTUUxJTAjBgNVBAMMHHRlbXBvcmFsX2NlcnRpZmljYXRlLmFjbWUuc3cwggEi
MA0GCSqGSIb3DQEBAQUAA4IBDwAwggEKAoIBAQDN0M8SCXe27cf6zdmHrsbCyoAe
4borJ3k9bp75a8qqBFJZS+lxAqGR1CZYF6zRcBieHq/0gnMdAkpWO+g6MqQyKhJs
gXdJ7P2EicmuNpIGMSvdAPPSfPWQyrxN0m1YgrymtZvx/n5vMPk/XK7F4hmpR90e
Wy2hedK4Gu+vb9EwEzm7V2ezos8bCQUffKKTgsya9jO2N+6z0u0/HBaxdk9v/yWN
O9POOLnndz2Ae+7fEt39wKAimRcn79p2Vq4TceQaXC5zMe6vexnebMEfSsDaVPZc
ODB0yLbPrk6eRap8yy+VI6X3mM4OrKp2KoWuJROglKNSn+tMyGzevfmxpfUzAgMB
AAGjgaIwgZ8wCQYDVR0TBAIwADARBglghkgBhvhCAQEEBAMCB4AwCwYDVR0PBAQD
AgeAMBMGA1UdJQQMMAoGCCsGAQUFBwMCMB0GA1UdDgQWBBQM4daLJnSMF5+TRaiN
RbQ+Ed5o9zAfBgNVHSMEGDAWgBRiHgSal71AML/GJL2dXJz77yHL4jAdBgNVHREE
FjAUgRJob3N0bWFzdGVyQGFjbWUuc3cwDQYJKoZIhvcNAQELBQADggEBAJFqQDb0
gEqloCbO+uO0I/5FIuRuwI3ZFnx3lENvHDtU865cbn3vHHaQXiw18nSrD5v6Hcgm
cerrmT3suAUllkDPmt6laEmKtvdpFBgyfeFUsgp0ZUEtECAujKr2735IoZRTRObI
O3R/3t8qasvUV1UKM5WdRGzUauJdExPD8epXORJHwQ0A7F1GhXqRNKMl9jS98mtQ
NRVpMB4i7WmuHrlKf+MBKds9JZFAmprV2CCoojRUiJEvDW6P39pWdVDdmihlF6Vd
WHWQ3IdWn0TRyv1KVuyJrjPfmK7DZTqGyALNMoIojklsrpyZDRyzgmqgvovPRM/V
QuOZv0FmjKawT6I=
-----END CERTIFICATE-----
