Certificate:
    Data:
        Version: 3 (0x2)
        Serial Number:
            a9:ba:f4:4c:cf:ca:c8:cf
    Signature Algorithm: sha256WithRSAEncryption
        Issuer: C=SW, L=Stockholm, O=ACME, CN=OpenVPN-ACME-CA
        Validity
            Not Before: Mar  3 13:21:10 2016 GMT
            Not After : Mar  4 13:21:10 2016 GMT
        Subject: C=SW, L=Stockholm, O=ACME, CN=temporal_certificate.acme.sw
        Subject Public Key Info:
            Public Key Algorithm: rsaEncryption
                Public-Key: (2048 bit)
                Modulus:
                    00:a8:09:e5:f9:9c:47:c9:7a:f7:5e:1a:19:c1:d6:
                    df:d2:f9:d7:df:86:8a:f6:ae:f3:9e:33:86:8a:94:
                    31:d8:4c:49:95:5a:e5:a4:5b:93:a5:17:77:74:0a:
                    7c:88:88:d0:75:75:40:0d:1a:3b:4f:79:14:9f:69:
                    c0:40:42:39:d3:ca:c8:f5:a5:be:9c:48:f0:57:3e:
                    56:a3:99:b8:97:86:f3:fa:85:c1:c7:34:a5:e1:73:
                    b8:34:af:eb:59:4f:8b:98:2c:08:3c:9e:b6:29:a0:
                    e2:b5:5a:e3:b9:22:75:49:39:65:e9:68:c2:85:62:
                    f5:b6:22:f8:fd:dc:87:47:23:81:9b:2d:cc:24:60:
                    23:8d:fb:3c:57:5a:2f:16:02:75:6a:b7:24:0d:cc:
                    97:a6:a2:25:3e:91:92:88:23:93:99:c6:ce:3a:6b:
                    78:29:09:a9:ab:28:fe:84:e1:43:06:9f:83:d3:6e:
                    21:85:d1:97:9e:52:8f:41:09:b9:be:1a:21:c7:00:
                    9e:b2:bb:26:9f:e6:7d:0d:9e:83:09:be:6f:dc:29:
                    40:c4:6e:4c:58:9d:c3:ba:13:a0:09:e1:74:6e:24:
                    73:8b:fb:19:e1:df:e6:2e:54:96:b1:76:71:2f:36:
                    3d:a0:1c:7f:12:bf:b7:53:c0:30:cb:84:5c:35:96:
                    6b:5b
                Exponent: 65537 (0x10001)
        X509v3 extensions:
            X509v3 Basic Constraints: 
                CA:FALSE
            Netscape Cert Type: 
                SSL Client
            X509v3 Key Usage: 
                Digital Signature
            X509v3 Extended Key Usage: 
                TLS Web Client Authentication
            X509v3 Subject Key Identifier: 
                DD:9C:F7:76:DD:9D:66:BD:7C:EB:95:D6:0A:AD:50:A8:5A:1F:81:AF
            X509v3 Authority Key Identifier: 
                keyid:62:1E:04:9A:97:BD:40:30:BF:C6:24:BD:9D:5C:9C:FB:EF:21:CB:E2

            X509v3 Subject Alternative Name: 
                email:hostmaster@acme.sw
    Signature Algorithm: sha256WithRSAEncryption
         5e:12:01:7c:45:a4:12:fc:54:d4:7a:39:4e:36:3b:19:ff:29:
         c4:5d:2e:af:91:6f:f4:62:61:2d:8d:8f:29:d1:cb:83:65:86:
         2a:1b:5b:9e:b1:d3:bd:38:df:ec:c9:a4:d0:99:76:61:1a:29:
         17:c7:6d:f5:4b:38:da:96:09:34:69:22:6b:70:7c:4f:cd:da:
         e2:30:0d:fb:56:e9:04:a9:09:32:bd:cb:71:ed:a4:95:cc:a4:
         3c:4d:0e:cf:0f:1c:e9:11:d0:5d:50:80:08:3b:5b:3c:bb:4f:
         55:57:df:e2:87:03:8d:36:19:43:25:bf:c1:3f:48:e7:f5:2f:
         15:a5:eb:3e:fa:c6:05:95:80:9d:38:cc:2a:6c:6d:a6:96:bd:
         61:60:be:b6:ff:25:ef:e0:cd:bd:71:70:1d:40:57:af:97:69:
         5c:a8:1f:45:51:db:c7:0f:55:29:a6:a4:17:fd:f0:00:97:5f:
         0a:85:69:b7:c4:df:7f:84:2e:f5:39:70:f0:d2:e2:fa:cd:c5:
         b6:8f:c3:6c:fe:a1:02:1c:93:50:60:c4:ad:ed:8a:d2:94:ad:
         83:a2:83:92:16:f3:9e:1b:3b:0e:27:70:59:67:53:7b:1d:49:
         44:1c:c6:09:9b:2b:8d:52:43:56:18:a5:e5:60:86:67:75:fb:
         f3:6f:96:47
-----BEGIN CERTIFICATE-----
MIIDxzCCAq+gAwIBAgIJAKm69EzPysjPMA0GCSqGSIb3DQEBCwUAMEoxCzAJBgNV
BAYTAlNXMRIwEAYDVQQHDAlTdG9ja2hvbG0xDTALBgNVBAoMBEFDTUUxGDAWBgNV
BAMMD09wZW5WUE4tQUNNRS1DQTAeFw0xNjAzMDMxMzIxMTBaFw0xNjAzMDQxMzIx
MTBaMFcxCzAJBgNVBAYTAlNXMRIwEAYDVQQHDAlTdG9ja2hvbG0xDTALBgNVBAoM
BEFDTUUxJTAjBgNVBAMMHHRlbXBvcmFsX2NlcnRpZmljYXRlLmFjbWUuc3cwggEi
MA0GCSqGSIb3DQEBAQUAA4IBDwAwggEKAoIBAQCoCeX5nEfJevdeGhnB1t/S+dff
hor2rvOeM4aKlDHYTEmVWuWkW5OlF3d0CnyIiNB1dUANGjtPeRSfacBAQjnTysj1
pb6cSPBXPlajmbiXhvP6hcHHNKXhc7g0r+tZT4uYLAg8nrYpoOK1WuO5InVJOWXp
aMKFYvW2Ivj93IdHI4GbLcwkYCON+zxXWi8WAnVqtyQNzJemoiU+kZKII5OZxs46
a3gpCamrKP6E4UMGn4PTbiGF0ZeeUo9BCbm+GiHHAJ6yuyaf5n0NnoMJvm/cKUDE
bkxYncO6E6AJ4XRuJHOL+xnh3+YuVJaxdnEvNj2gHH8Sv7dTwDDLhFw1lmtbAgMB
AAGjgaIwgZ8wCQYDVR0TBAIwADARBglghkgBhvhCAQEEBAMCB4AwCwYDVR0PBAQD
AgeAMBMGA1UdJQQMMAoGCCsGAQUFBwMCMB0GA1UdDgQWBBTdnPd23Z1mvXzrldYK
rVCoWh+BrzAfBgNVHSMEGDAWgBRiHgSal71AML/GJL2dXJz77yHL4jAdBgNVHREE
FjAUgRJob3N0bWFzdGVyQGFjbWUuc3cwDQYJKoZIhvcNAQELBQADggEBAF4SAXxF
pBL8VNR6OU42Oxn/KcRdLq+Rb/RiYS2NjynRy4NlhiobW56x07043+zJpNCZdmEa
KRfHbfVLONqWCTRpImtwfE/N2uIwDftW6QSpCTK9y3HtpJXMpDxNDs8PHOkR0F1Q
gAg7Wzy7T1VX3+KHA402GUMlv8E/SOf1LxWl6z76xgWVgJ04zCpsbaaWvWFgvrb/
Je/gzb1xcB1AV6+XaVyoH0VR28cPVSmmpBf98ACXXwqFabfE33+ELvU5cPDS4vrN
xbaPw2z+oQIck1BgxK3titKUrYOig5IW854bOw4ncFlnU3sdSUQcxgmbK41SQ1YY
peVghmd1+/Nvlkc=
-----END CERTIFICATE-----
