Certificate:
    Data:
        Version: 3 (0x2)
        Serial Number:
            a9:ba:f4:4c:cf:ca:c8:ca
    Signature Algorithm: sha256WithRSAEncryption
        Issuer: C=SW, L=Stockholm, O=ACME, CN=OpenVPN-ACME-CA
        Validity
            Not Before: Mar  3 13:08:51 2016 GMT
            Not After : Mar  4 13:08:51 2016 GMT
        Subject: C=SW, L=Stockholm, O=ACME, CN=temporal_certificate.acme.sw
        Subject Public Key Info:
            Public Key Algorithm: rsaEncryption
                Public-Key: (2048 bit)
                Modulus:
                    00:d0:60:ea:91:62:8c:00:92:bd:ee:3e:1f:d9:cb:
                    80:a2:46:c9:b0:29:d9:3c:b9:94:60:fe:bd:5f:a4:
                    5c:38:8d:ce:50:82:91:06:6b:20:29:33:2a:b1:fa:
                    8b:77:83:b7:ce:37:f1:97:28:3a:ba:b2:cf:cd:4b:
                    0d:78:33:8d:aa:a4:2d:48:63:cf:98:ce:89:37:b3:
                    28:3b:17:2b:f0:b7:73:2d:2e:8c:2b:bd:ca:4e:52:
                    7e:4d:ab:80:79:e5:e4:6f:cd:32:d0:ec:32:73:00:
                    15:ad:49:8e:ff:ee:f3:42:28:fc:c1:35:d3:eb:33:
                    a3:2d:4f:48:b2:e4:d7:c7:f8:e4:0e:59:a0:94:2a:
                    ae:9f:b2:b2:8d:1f:a9:a8:b9:c3:1f:92:f5:2a:8f:
                    04:b7:af:8f:63:77:b5:08:98:d1:90:49:56:fd:7c:
                    bb:b7:17:c2:50:fd:6c:b9:c7:63:f0:ad:d7:3d:fe:
                    55:eb:85:3a:fd:26:f2:6f:eb:a9:1e:ab:a0:d0:68:
                    8f:bd:68:b7:cc:8e:cd:c0:7d:60:00:04:27:90:40:
                    a6:f5:ec:68:45:f3:6f:b5:cb:ba:3e:1f:bd:ce:30:
                    54:1e:28:51:14:eb:05:36:1f:bf:db:10:fc:4a:18:
                    a5:cb:b6:a2:2b:c4:7b:d5:c9:7b:97:e8:42:f6:c2:
                    04:71
                Exponent: 65537 (0x10001)
        X509v3 extensions:
            X509v3 Basic Constraints: 
                CA:FALSE
            Netscape Cert Type: 
                SSL Client
            X509v3 Key Usage: 
                Digital Signature
            X509v3 Extended Key Usage: 
                TLS Web Client Authentication
            X509v3 Subject Key Identifier: 
                2E:E3:0E:19:4B:3F:19:DF:00:EC:F0:2C:D2:81:E2:5B:B1:26:2C:E6
            X509v3 Authority Key Identifier: 
                keyid:62:1E:04:9A:97:BD:40:30:BF:C6:24:BD:9D:5C:9C:FB:EF:21:CB:E2

            X509v3 Subject Alternative Name: 
                email:hostmaster@acme.sw
    Signature Algorithm: sha256WithRSAEncryption
         a7:f4:c2:d8:69:98:4f:e8:1b:34:00:e6:a7:b8:8a:53:4b:26:
         8c:3b:b3:d1:e3:83:b1:a6:14:20:86:00:96:29:0e:66:9a:fc:
         d3:5b:40:a2:90:f7:95:ed:6e:3a:d4:de:b3:43:99:e8:c1:2c:
         67:c6:50:82:b9:1f:3b:ad:6e:8d:15:50:2f:ab:47:6b:c5:a3:
         c8:91:5c:62:17:a6:25:3e:c0:ee:ae:f1:7a:06:05:39:69:76:
         d0:3e:15:d4:76:43:57:5c:ff:9f:ff:1d:64:20:c9:0d:2a:b5:
         12:56:e8:19:9b:1a:f1:01:c4:1d:be:d5:1f:59:ab:96:8f:73:
         b7:3b:ff:88:a0:06:83:58:23:bd:e5:8e:c7:11:e9:fa:7c:e2:
         02:60:a8:48:b3:96:90:ed:32:a8:d2:ea:54:d1:7d:30:06:95:
         d6:1e:b4:bc:e8:41:50:90:0b:ce:b9:3a:cf:9d:92:39:b5:56:
         4c:b0:02:e0:84:ad:3a:3e:bc:22:a5:97:6e:45:a2:28:63:b1:
         0c:ab:51:80:7c:40:76:c5:84:48:f8:13:7a:2a:92:2c:84:9f:
         55:d8:c1:26:4e:c8:4d:46:05:6b:7b:fa:65:d8:0b:63:53:97:
         40:62:6d:48:f7:48:6b:e6:56:c2:3a:12:bf:ad:fb:6d:56:89:
         62:55:94:cd
-----BEGIN CERTIFICATE-----
MIIDxzCCAq+gAwIBAgIJAKm69EzPysjKMA0GCSqGSIb3DQEBCwUAMEoxCzAJBgNV
BAYTAlNXMRIwEAYDVQQHDAlTdG9ja2hvbG0xDTALBgNVBAoMBEFDTUUxGDAWBgNV
BAMMD09wZW5WUE4tQUNNRS1DQTAeFw0xNjAzMDMxMzA4NTFaFw0xNjAzMDQxMzA4
NTFaMFcxCzAJBgNVBAYTAlNXMRIwEAYDVQQHDAlTdG9ja2hvbG0xDTALBgNVBAoM
BEFDTUUxJTAjBgNVBAMMHHRlbXBvcmFsX2NlcnRpZmljYXRlLmFjbWUuc3cwggEi
MA0GCSqGSIb3DQEBAQUAA4IBDwAwggEKAoIBAQDQYOqRYowAkr3uPh/Zy4CiRsmw
Kdk8uZRg/r1fpFw4jc5QgpEGayApMyqx+ot3g7fON/GXKDq6ss/NSw14M42qpC1I
Y8+Yzok3syg7Fyvwt3MtLowrvcpOUn5Nq4B55eRvzTLQ7DJzABWtSY7/7vNCKPzB
NdPrM6MtT0iy5NfH+OQOWaCUKq6fsrKNH6moucMfkvUqjwS3r49jd7UImNGQSVb9
fLu3F8JQ/Wy5x2Pwrdc9/lXrhTr9JvJv66keq6DQaI+9aLfMjs3AfWAABCeQQKb1
7GhF82+1y7o+H73OMFQeKFEU6wU2H7/bEPxKGKXLtqIrxHvVyXuX6EL2wgRxAgMB
AAGjgaIwgZ8wCQYDVR0TBAIwADARBglghkgBhvhCAQEEBAMCB4AwCwYDVR0PBAQD
AgeAMBMGA1UdJQQMMAoGCCsGAQUFBwMCMB0GA1UdDgQWBBQu4w4ZSz8Z3wDs8CzS
geJbsSYs5jAfBgNVHSMEGDAWgBRiHgSal71AML/GJL2dXJz77yHL4jAdBgNVHREE
FjAUgRJob3N0bWFzdGVyQGFjbWUuc3cwDQYJKoZIhvcNAQELBQADggEBAKf0wthp
mE/oGzQA5qe4ilNLJow7s9Hjg7GmFCCGAJYpDmaa/NNbQKKQ95XtbjrU3rNDmejB
LGfGUIK5Hzutbo0VUC+rR2vFo8iRXGIXpiU+wO6u8XoGBTlpdtA+FdR2Q1dc/5//
HWQgyQ0qtRJW6BmbGvEBxB2+1R9Zq5aPc7c7/4igBoNYI73ljscR6fp84gJgqEiz
lpDtMqjS6lTRfTAGldYetLzoQVCQC865Os+dkjm1VkywAuCErTo+vCKll25Foihj
sQyrUYB8QHbFhEj4E3oqkiyEn1XYwSZOyE1GBWt7+mXYC2NTl0BibUj3SGvmVsI6
Er+t+21WiWJVlM0=
-----END CERTIFICATE-----
