Certificate:
    Data:
        Version: 3 (0x2)
        Serial Number:
            a9:ba:f4:4c:cf:ca:c8:c7
    Signature Algorithm: sha256WithRSAEncryption
        Issuer: C=SW, L=Stockholm, O=ACME, CN=OpenVPN-ACME-CA
        Validity
            Not Before: Mar  3 13:08:01 2016 GMT
            Not After : Mar  4 13:08:01 2016 GMT
        Subject: C=SW, L=Stockholm, O=ACME, CN=temporal_certificate.acme.sw
        Subject Public Key Info:
            Public Key Algorithm: rsaEncryption
                Public-Key: (2048 bit)
                Modulus:
                    00:df:fe:ae:15:c3:7d:24:2b:1d:67:93:20:85:58:
                    8f:f6:9e:b2:96:72:4c:71:88:cb:8f:eb:d1:12:7e:
                    12:47:71:d9:a7:7b:c2:ea:b3:f9:1c:99:5d:3a:99:
                    57:7e:93:cc:b6:6e:4b:d6:b1:05:82:01:b6:1a:d6:
                    15:19:78:7c:08:99:49:0c:ed:e5:87:63:aa:cb:e6:
                    c4:9d:73:e0:2e:3f:26:7e:5d:06:8d:8f:a7:63:ff:
                    99:47:92:e6:7e:8a:95:6b:96:1c:c1:a3:13:ef:5e:
                    83:33:e5:0d:67:e2:db:b0:8f:53:86:49:37:3d:12:
                    ea:cf:3f:ad:40:d1:92:9e:fe:39:dd:06:03:e3:77:
                    d4:8f:19:ba:9d:8e:38:1a:93:2a:fa:7b:92:89:6b:
                    5a:f5:c3:05:88:37:f1:28:df:38:8d:d3:c3:7a:2b:
                    5d:11:bb:f9:e4:6f:6f:a6:88:0d:2a:ea:90:48:73:
                    fa:84:82:19:ff:5b:f9:00:b1:4f:e8:ac:5a:95:58:
                    46:23:53:d1:a8:30:7e:e6:5c:e0:d0:03:1f:ee:13:
                    15:f6:61:c5:0c:8e:63:be:20:3f:5d:37:44:1c:c2:
                    be:de:c0:89:d4:f0:d4:13:c5:3e:43:3d:f9:da:df:
                    5b:75:89:01:dc:7f:be:46:a9:53:b7:aa:84:48:1f:
                    6a:fd
                Exponent: 65537 (0x10001)
        X509v3 extensions:
            X509v3 Basic Constraints: 
                CA:FALSE
            Netscape Cert Type: 
                SSL Client
            X509v3 Key Usage: 
                Digital Signature
            X509v3 Extended Key Usage: 
                TLS Web Client Authentication
            X509v3 Subject Key Identifier: 
                60:54:52:7A:39:16:16:00:7A:3B:34:08:FC:0D:9C:FC:9C:2A:DD:5E
            X509v3 Authority Key Identifier: 
                keyid:62:1E:04:9A:97:BD:40:30:BF:C6:24:BD:9D:5C:9C:FB:EF:21:CB:E2

            X509v3 Subject Alternative Name: 
                email:hostmaster@acme.sw
    Signature Algorithm: sha256WithRSAEncryption
         91:87:0b:f1:54:6e:cb:b9:d6:f3:e7:31:00:2d:57:07:c0:56:
         33:28:cd:08:02:fa:59:05:c5:f5:de:fc:7c:4b:6b:a1:8f:14:
         b1:cf:31:e3:8c:78:a8:cd:fb:0a:28:de:2b:11:80:d8:c5:cd:
         90:e7:20:fa:17:0a:1c:3e:9f:8d:c6:f5:5c:43:e4:ba:64:57:
         c3:1a:0b:4a:0a:d2:f8:8a:99:e0:7e:89:18:4e:63:5e:52:60:
         f1:c9:77:63:9b:32:74:9e:36:d5:56:78:a0:ac:56:73:25:51:
         2d:2c:63:e2:95:ac:ae:3a:ea:61:e1:21:18:a3:2d:fa:57:d7:
         06:12:28:3d:ae:76:41:b9:60:b7:15:2c:8c:4a:f9:bf:53:56:
         ba:0f:a3:08:e8:6c:e3:a4:fa:d8:c0:ad:c9:6b:09:7c:8a:3b:
         4a:41:45:d0:97:e6:22:31:24:d6:c9:9d:ff:72:a6:35:a4:75:
         c2:1b:98:49:a7:be:8e:08:ef:e5:e6:09:0d:95:ac:89:1a:48:
         8c:b8:70:d9:c6:17:9c:8e:73:88:d4:b2:12:57:c5:00:8b:ae:
         28:d0:29:5a:00:5c:26:df:32:38:bc:e0:5b:c7:76:7b:2c:b3:
         98:e5:71:2d:37:d2:70:98:63:36:4e:7a:85:e2:2e:72:77:1c:
         8c:f3:78:f8
-----BEGIN CERTIFICATE-----
MIIDxzCCAq+gAwIBAgIJAKm69EzPysjHMA0GCSqGSIb3DQEBCwUAMEoxCzAJBgNV
BAYTAlNXMRIwEAYDVQQHDAlTdG9ja2hvbG0xDTALBgNVBAoMBEFDTUUxGDAWBgNV
BAMMD09wZW5WUE4tQUNNRS1DQTAeFw0xNjAzMDMxMzA4MDFaFw0xNjAzMDQxMzA4
MDFaMFcxCzAJBgNVBAYTAlNXMRIwEAYDVQQHDAlTdG9ja2hvbG0xDTALBgNVBAoM
BEFDTUUxJTAjBgNVBAMMHHRlbXBvcmFsX2NlcnRpZmljYXRlLmFjbWUuc3cwggEi
MA0GCSqGSIb3DQEBAQUAA4IBDwAwggEKAoIBAQDf/q4Vw30kKx1nkyCFWI/2nrKW
ckxxiMuP69ESfhJHcdmne8Lqs/kcmV06mVd+k8y2bkvWsQWCAbYa1hUZeHwImUkM
7eWHY6rL5sSdc+AuPyZ+XQaNj6dj/5lHkuZ+ipVrlhzBoxPvXoMz5Q1n4tuwj1OG
STc9EurPP61A0ZKe/jndBgPjd9SPGbqdjjgakyr6e5KJa1r1wwWIN/Eo3ziN08N6
K10Ru/nkb2+miA0q6pBIc/qEghn/W/kAsU/orFqVWEYjU9GoMH7mXODQAx/uExX2
YcUMjmO+ID9dN0Qcwr7ewInU8NQTxT5DPfna31t1iQHcf75GqVO3qoRIH2r9AgMB
AAGjgaIwgZ8wCQYDVR0TBAIwADARBglghkgBhvhCAQEEBAMCB4AwCwYDVR0PBAQD
AgeAMBMGA1UdJQQMMAoGCCsGAQUFBwMCMB0GA1UdDgQWBBRgVFJ6ORYWAHo7NAj8
DZz8nCrdXjAfBgNVHSMEGDAWgBRiHgSal71AML/GJL2dXJz77yHL4jAdBgNVHREE
FjAUgRJob3N0bWFzdGVyQGFjbWUuc3cwDQYJKoZIhvcNAQELBQADggEBAJGHC/FU
bsu51vPnMQAtVwfAVjMozQgC+lkFxfXe/HxLa6GPFLHPMeOMeKjN+woo3isRgNjF
zZDnIPoXChw+n43G9VxD5LpkV8MaC0oK0viKmeB+iRhOY15SYPHJd2ObMnSeNtVW
eKCsVnMlUS0sY+KVrK466mHhIRijLfpX1wYSKD2udkG5YLcVLIxK+b9TVroPowjo
bOOk+tjArclrCXyKO0pBRdCX5iIxJNbJnf9ypjWkdcIbmEmnvo4I7+XmCQ2VrIka
SIy4cNnGF5yOc4jUshJXxQCLrijQKVoAXCbfMji84FvHdnsss5jlcS030nCYYzZO
eoXiLnJ3HIzzePg=
-----END CERTIFICATE-----
