Certificate:
    Data:
        Version: 3 (0x2)
        Serial Number:
            a9:ba:f4:4c:cf:ca:c8:d4
    Signature Algorithm: sha256WithRSAEncryption
        Issuer: C=SW, L=Stockholm, O=ACME, CN=OpenVPN-ACME-CA
        Validity
            Not Before: Mar  3 13:23:04 2016 GMT
            Not After : Mar  4 13:23:04 2016 GMT
        Subject: C=SW, L=Stockholm, O=ACME, CN=temporal_certificate.acme.sw
        Subject Public Key Info:
            Public Key Algorithm: rsaEncryption
                Public-Key: (2048 bit)
                Modulus:
                    00:da:97:1b:3f:a8:6f:b6:75:1c:1b:8b:33:f1:19:
                    a0:ef:92:ea:1d:91:6c:dc:e2:56:5c:36:e2:a1:ab:
                    5c:99:e9:bb:e8:bd:c4:19:87:e4:46:3f:92:79:e6:
                    b2:25:24:4e:67:7d:fa:73:a8:02:84:8f:53:bb:21:
                    89:08:bd:a0:be:42:ef:dc:85:9d:42:50:f8:3e:4e:
                    b7:9c:35:48:e9:08:5d:f2:ee:f9:01:f9:65:52:20:
                    85:d1:38:c4:79:d9:27:39:b7:98:cb:53:9c:38:d4:
                    d4:64:75:87:0d:08:44:6f:77:a7:7b:ef:09:f8:51:
                    e4:8a:37:3b:ac:72:9e:99:ad:db:3f:9d:0c:b2:9a:
                    d1:d3:6d:ad:5c:1f:60:49:56:73:2b:f2:be:fe:cf:
                    bc:81:ac:ea:54:f3:73:be:89:a1:cc:83:de:ec:d4:
                    33:3a:45:ef:73:3d:64:9f:6c:23:19:8a:83:45:25:
                    8f:e8:4a:bd:3e:24:6f:b8:b2:6a:5b:44:36:a5:1a:
                    e9:a5:1e:64:82:06:d8:d1:45:02:e1:b8:67:30:2c:
                    4d:fc:7f:23:bb:ae:53:22:48:de:c2:0e:5b:02:ec:
                    d9:93:2c:8d:6b:18:a9:93:d7:96:a9:fd:18:70:c5:
                    ab:35:7d:f8:41:47:cc:60:f3:fa:18:50:55:e1:8a:
                    c7:03
                Exponent: 65537 (0x10001)
        X509v3 extensions:
            X509v3 Basic Constraints: 
                CA:FALSE
            Netscape Cert Type: 
                SSL Client
            X509v3 Key Usage: 
                Digital Signature
            X509v3 Extended Key Usage: 
                TLS Web Client Authentication
            X509v3 Subject Key Identifier: 
                13:2D:48:24:2B:85:BA:C1:1F:89:DE:99:50:69:90:AB:40:17:B5:DD
            X509v3 Authority Key Identifier: 
                keyid:62:1E:04:9A:97:BD:40:30:BF:C6:24:BD:9D:5C:9C:FB:EF:21:CB:E2

            X509v3 Subject Alternative Name: 
                email:hostmaster@acme.sw
    Signature Algorithm: sha256WithRSAEncryption
         bf:bd:32:85:60:da:eb:08:6a:a2:69:b3:d0:54:6e:31:74:b0:
         9a:5b:d8:f2:64:de:15:91:b0:6d:96:ae:3e:05:98:04:8f:3d:
         26:76:e6:3d:b0:a7:61:cc:4d:1d:93:08:db:34:37:89:ce:39:
         9e:55:ed:61:e6:86:ac:17:a8:78:7b:06:83:24:6b:2f:cd:23:
         86:ca:cc:2c:7d:5d:5a:97:61:70:1d:8c:55:e5:a2:c5:e7:36:
         c8:2f:3c:f2:cf:96:09:a8:6e:6d:24:1b:a4:8c:ab:cf:a3:c0:
         c3:72:82:a8:b0:7d:f0:33:d3:8d:c7:7e:f3:1d:a0:ea:03:17:
         9f:63:c1:c9:7b:e2:d1:1a:9c:c5:7f:bb:3c:36:61:8b:d5:1b:
         52:c6:af:5e:1c:0c:9f:68:98:79:0d:da:d8:44:c7:80:5f:4e:
         8f:78:bc:20:81:dd:e2:49:ed:52:a0:f8:c5:b7:8c:04:97:46:
         5a:db:7e:96:d0:32:63:68:35:26:b6:4f:68:e8:e7:77:35:98:
         b1:9f:38:4e:1d:d1:bd:de:40:68:48:10:ce:41:72:85:27:d2:
         e9:8b:b9:56:1e:9c:d0:7c:12:03:9b:60:d9:8d:01:80:a1:39:
         62:f0:90:e4:86:14:69:c2:4e:67:23:14:1f:fc:3d:7d:81:72:
         59:08:58:64
-----BEGIN CERTIFICATE-----
MIIDxzCCAq+gAwIBAgIJAKm69EzPysjUMA0GCSqGSIb3DQEBCwUAMEoxCzAJBgNV
BAYTAlNXMRIwEAYDVQQHDAlTdG9ja2hvbG0xDTALBgNVBAoMBEFDTUUxGDAWBgNV
BAMMD09wZW5WUE4tQUNNRS1DQTAeFw0xNjAzMDMxMzIzMDRaFw0xNjAzMDQxMzIz
MDRaMFcxCzAJBgNVBAYTAlNXMRIwEAYDVQQHDAlTdG9ja2hvbG0xDTALBgNVBAoM
BEFDTUUxJTAjBgNVBAMMHHRlbXBvcmFsX2NlcnRpZmljYXRlLmFjbWUuc3cwggEi
MA0GCSqGSIb3DQEBAQUAA4IBDwAwggEKAoIBAQDalxs/qG+2dRwbizPxGaDvkuod
kWzc4lZcNuKhq1yZ6bvovcQZh+RGP5J55rIlJE5nffpzqAKEj1O7IYkIvaC+Qu/c
hZ1CUPg+TrecNUjpCF3y7vkB+WVSIIXROMR52Sc5t5jLU5w41NRkdYcNCERvd6d7
7wn4UeSKNzuscp6Zrds/nQyymtHTba1cH2BJVnMr8r7+z7yBrOpU83O+iaHMg97s
1DM6Re9zPWSfbCMZioNFJY/oSr0+JG+4smpbRDalGumlHmSCBtjRRQLhuGcwLE38
fyO7rlMiSN7CDlsC7NmTLI1rGKmT15ap/Rhwxas1ffhBR8xg8/oYUFXhiscDAgMB
AAGjgaIwgZ8wCQYDVR0TBAIwADARBglghkgBhvhCAQEEBAMCB4AwCwYDVR0PBAQD
AgeAMBMGA1UdJQQMMAoGCCsGAQUFBwMCMB0GA1UdDgQWBBQTLUgkK4W6wR+J3plQ
aZCrQBe13TAfBgNVHSMEGDAWgBRiHgSal71AML/GJL2dXJz77yHL4jAdBgNVHREE
FjAUgRJob3N0bWFzdGVyQGFjbWUuc3cwDQYJKoZIhvcNAQELBQADggEBAL+9MoVg
2usIaqJps9BUbjF0sJpb2PJk3hWRsG2Wrj4FmASPPSZ25j2wp2HMTR2TCNs0N4nO
OZ5V7WHmhqwXqHh7BoMkay/NI4bKzCx9XVqXYXAdjFXlosXnNsgvPPLPlgmobm0k
G6SMq8+jwMNygqiwffAz043HfvMdoOoDF59jwcl74tEanMV/uzw2YYvVG1LGr14c
DJ9omHkN2thEx4BfTo94vCCB3eJJ7VKg+MW3jASXRlrbfpbQMmNoNSa2T2jo53c1
mLGfOE4d0b3eQGhIEM5BcoUn0umLuVYenNB8EgObYNmNAYChOWLwkOSGFGnCTmcj
FB/8PX2BclkIWGQ=
-----END CERTIFICATE-----
