Certificate:
    Data:
        Version: 3 (0x2)
        Serial Number:
            a9:ba:f4:4c:cf:ca:c8:9a
    Signature Algorithm: sha256WithRSAEncryption
        Issuer: C=SW, L=Stockholm, O=ACME, CN=OpenVPN-ACME-CA
        Validity
            Not Before: Mar  2 17:31:56 2016 GMT
            Not After : Mar  3 17:31:56 2016 GMT
        Subject: C=SW, L=Stockholm, O=ACME, CN=temp.acme.sw
        Subject Public Key Info:
            Public Key Algorithm: rsaEncryption
                Public-Key: (2048 bit)
                Modulus:
                    00:e9:66:e4:a2:c3:14:d9:2f:34:a9:46:5b:57:1a:
                    49:9f:7c:8a:90:af:96:cc:8f:0f:30:52:1a:89:77:
                    99:c1:2a:fe:88:2e:57:f5:c1:29:cf:7e:e3:27:94:
                    1e:74:b6:8a:4e:0c:2b:78:80:79:e0:f8:cb:de:c1:
                    2d:b5:e3:cf:64:74:c8:d7:b2:c5:e3:fd:57:ca:34:
                    a7:48:f2:8c:71:38:ef:87:c6:45:45:4d:98:54:8c:
                    d6:d3:2e:be:e1:b4:be:37:90:f0:00:2b:00:88:f9:
                    a6:e9:0d:71:9c:f4:3b:da:08:62:45:75:3a:e5:9b:
                    e4:24:d4:1b:5d:56:45:d1:ab:6b:b9:48:3d:e5:05:
                    15:9f:ab:f8:1e:e9:64:a0:b1:7a:74:b7:02:22:d4:
                    87:cc:f7:af:12:24:b7:12:6d:49:66:52:73:eb:c3:
                    3d:54:2b:c1:66:42:a8:c8:77:d3:98:8a:cf:5f:dd:
                    20:8b:d1:57:75:64:4f:50:f4:c2:89:d7:6a:9d:57:
                    b0:66:35:d8:2e:30:3a:d8:29:9b:ce:32:f9:3f:77:
                    45:5b:d2:ff:a8:af:9b:86:74:67:ee:01:56:74:d4:
                    d4:e5:47:fb:ad:ef:97:30:c6:78:53:f2:5e:da:64:
                    7a:7f:32:82:c7:f9:ac:fc:e5:3a:dd:3c:11:c6:f6:
                    66:89
                Exponent: 65537 (0x10001)
        X509v3 extensions:
            X509v3 Basic Constraints: 
                CA:FALSE
            Netscape Cert Type: 
                SSL Client
            X509v3 Key Usage: 
                Digital Signature
            X509v3 Extended Key Usage: 
                TLS Web Client Authentication
            X509v3 Subject Key Identifier: 
                CB:D1:84:D3:82:AE:16:2B:2D:AC:51:AE:BC:FD:6F:32:13:80:7A:80
            X509v3 Authority Key Identifier: 
                keyid:62:1E:04:9A:97:BD:40:30:BF:C6:24:BD:9D:5C:9C:FB:EF:21:CB:E2

            X509v3 Subject Alternative Name: 
                email:hostmaster@acme.sw
    Signature Algorithm: sha256WithRSAEncryption
         2a:c1:6b:ef:2e:b6:55:39:52:b1:70:c2:ef:44:c7:7b:9c:52:
         9d:c2:37:d4:1e:03:de:69:4c:22:bc:fb:99:e3:ce:44:7b:43:
         c9:ed:ff:73:b6:ca:34:8b:b2:af:8a:69:96:89:03:9d:74:ba:
         6c:21:52:cd:d0:d7:52:5c:19:4f:70:5e:1c:2e:1f:75:06:f7:
         8c:d3:bd:5f:87:66:00:d8:63:d6:d9:58:4e:a8:d9:3e:d8:3e:
         e0:94:be:c9:6d:ab:b9:ef:2b:9d:f6:03:11:c4:0d:09:27:70:
         30:fc:ee:62:37:59:42:84:9a:c9:8b:0f:65:06:2e:34:65:f8:
         c5:63:d9:1f:1f:1a:45:a3:77:5c:36:01:09:9b:c4:57:60:5c:
         56:c9:cb:7e:19:8e:05:ba:e7:7d:64:3c:6c:17:92:93:0c:9e:
         c1:e7:f2:28:d6:9b:71:2a:87:b6:9c:80:d5:e8:44:99:98:bb:
         58:d1:a5:b1:6c:17:42:39:80:4e:ab:da:2b:3f:b8:99:07:05:
         f5:f5:81:0b:97:50:d0:6b:94:b7:e9:f3:a6:31:ca:3e:68:33:
         db:b3:20:63:59:14:10:ea:c7:65:1d:0b:42:00:b7:69:d2:68:
         10:6f:44:46:e3:c4:e3:7c:e0:0b:58:52:55:e3:ee:6c:c4:4e:
         a8:91:03:8c
-----BEGIN CERTIFICATE-----
MIIDtzCCAp+gAwIBAgIJAKm69EzPysiaMA0GCSqGSIb3DQEBCwUAMEoxCzAJBgNV
BAYTAlNXMRIwEAYDVQQHDAlTdG9ja2hvbG0xDTALBgNVBAoMBEFDTUUxGDAWBgNV
BAMMD09wZW5WUE4tQUNNRS1DQTAeFw0xNjAzMDIxNzMxNTZaFw0xNjAzMDMxNzMx
NTZaMEcxCzAJBgNVBAYTAlNXMRIwEAYDVQQHDAlTdG9ja2hvbG0xDTALBgNVBAoM
BEFDTUUxFTATBgNVBAMMDHRlbXAuYWNtZS5zdzCCASIwDQYJKoZIhvcNAQEBBQAD
ggEPADCCAQoCggEBAOlm5KLDFNkvNKlGW1caSZ98ipCvlsyPDzBSGol3mcEq/ogu
V/XBKc9+4yeUHnS2ik4MK3iAeeD4y97BLbXjz2R0yNeyxeP9V8o0p0jyjHE474fG
RUVNmFSM1tMuvuG0vjeQ8AArAIj5pukNcZz0O9oIYkV1OuWb5CTUG11WRdGra7lI
PeUFFZ+r+B7pZKCxenS3AiLUh8z3rxIktxJtSWZSc+vDPVQrwWZCqMh305iKz1/d
IIvRV3VkT1D0wonXap1XsGY12C4wOtgpm84y+T93RVvS/6ivm4Z0Z+4BVnTU1OVH
+63vlzDGeFPyXtpken8ygsf5rPzlOt08Ecb2ZokCAwEAAaOBojCBnzAJBgNVHRME
AjAAMBEGCWCGSAGG+EIBAQQEAwIHgDALBgNVHQ8EBAMCB4AwEwYDVR0lBAwwCgYI
KwYBBQUHAwIwHQYDVR0OBBYEFMvRhNOCrhYrLaxRrrz9bzITgHqAMB8GA1UdIwQY
MBaAFGIeBJqXvUAwv8YkvZ1cnPvvIcviMB0GA1UdEQQWMBSBEmhvc3RtYXN0ZXJA
YWNtZS5zdzANBgkqhkiG9w0BAQsFAAOCAQEAKsFr7y62VTlSsXDC70THe5xSncI3
1B4D3mlMIrz7mePORHtDye3/c7bKNIuyr4pplokDnXS6bCFSzdDXUlwZT3BeHC4f
dQb3jNO9X4dmANhj1tlYTqjZPtg+4JS+yW2rue8rnfYDEcQNCSdwMPzuYjdZQoSa
yYsPZQYuNGX4xWPZHx8aRaN3XDYBCZvEV2BcVsnLfhmOBbrnfWQ8bBeSkwyewefy
KNabcSqHtpyA1ehEmZi7WNGlsWwXQjmATqvaKz+4mQcF9fWBC5dQ0GuUt+nzpjHK
Pmgz27MgY1kUEOrHZR0LQgC3adJoEG9ERuPE43zgC1hSVePubMROqJEDjA==
-----END CERTIFICATE-----
