Certificate:
    Data:
        Version: 3 (0x2)
        Serial Number:
            a9:ba:f4:4c:cf:ca:c8:d6
    Signature Algorithm: sha256WithRSAEncryption
        Issuer: C=SW, L=Stockholm, O=ACME, CN=OpenVPN-ACME-CA
        Validity
            Not Before: Mar  3 13:23:52 2016 GMT
            Not After : Mar  4 13:23:52 2016 GMT
        Subject: C=SW, L=Stockholm, O=ACME, CN=temporal_certificate.acme.sw
        Subject Public Key Info:
            Public Key Algorithm: rsaEncryption
                Public-Key: (2048 bit)
                Modulus:
                    00:c9:53:dd:f2:50:21:37:42:57:17:55:aa:4e:a2:
                    62:92:4b:56:70:40:30:85:45:be:d8:58:0f:b8:9a:
                    9e:b4:06:b9:1f:ac:75:0c:b0:87:39:96:27:8c:6d:
                    8f:7d:f4:8f:60:98:91:ef:ca:93:4b:bf:29:f9:b9:
                    67:94:a6:be:4f:39:e1:08:0d:cd:f7:ff:6a:86:a6:
                    6f:71:87:13:ae:1c:06:8c:8f:65:00:25:8c:b0:f7:
                    b2:84:47:54:64:c2:1e:29:c3:57:3e:36:a8:7d:df:
                    ff:5d:fa:46:3d:bd:0d:a5:a1:21:55:13:1e:25:df:
                    2c:9b:c4:c0:f4:24:24:82:10:54:c6:eb:9c:e5:ab:
                    43:15:b1:c6:0e:8d:0b:7b:b9:04:3c:2e:42:92:3c:
                    78:9f:ab:5d:b7:87:4f:4f:22:9e:c7:22:21:7c:1a:
                    98:3a:a2:d3:df:4b:06:b0:9a:9f:14:48:b4:8a:1f:
                    cc:8e:31:03:d5:2f:07:e6:23:44:6b:e2:e4:94:51:
                    be:8f:8e:f6:4b:d8:08:4b:23:df:87:7d:b5:57:6f:
                    74:7d:e3:f6:c7:de:14:e7:a1:60:f8:aa:ed:de:be:
                    ac:3c:5c:0f:8b:8b:ea:f4:f3:53:46:79:24:4d:7c:
                    f9:9a:c1:71:0e:5d:2c:69:ae:e4:b0:a2:06:a5:04:
                    49:03
                Exponent: 65537 (0x10001)
        X509v3 extensions:
            X509v3 Basic Constraints: 
                CA:FALSE
            Netscape Cert Type: 
                SSL Client
            X509v3 Key Usage: 
                Digital Signature
            X509v3 Extended Key Usage: 
                TLS Web Client Authentication
            X509v3 Subject Key Identifier: 
                70:50:70:E0:2F:FD:15:D5:12:78:21:13:DD:77:A9:5D:A7:D5:44:59
            X509v3 Authority Key Identifier: 
                keyid:62:1E:04:9A:97:BD:40:30:BF:C6:24:BD:9D:5C:9C:FB:EF:21:CB:E2

            X509v3 Subject Alternative Name: 
                email:hostmaster@acme.sw
    Signature Algorithm: sha256WithRSAEncryption
         59:47:f0:dc:d6:e1:0e:8e:2c:17:5f:b8:aa:c5:47:4d:7e:a8:
         e6:df:b9:4a:a8:86:52:1a:fd:a4:c7:ca:7f:be:c2:04:02:9a:
         aa:e5:da:00:de:b1:a1:7a:1f:60:43:b2:0d:8e:f2:ef:7a:e6:
         fc:f8:45:1c:0e:20:d0:86:fb:54:c7:30:42:87:0a:43:ce:74:
         0a:0a:0b:c4:81:2f:ef:6c:7c:a8:07:b7:82:71:fd:fb:0e:8f:
         0e:2c:40:b9:92:5e:90:70:f5:56:9c:6c:ed:37:ed:ec:93:4d:
         59:96:ec:1a:86:f0:83:2a:37:a0:8a:1e:29:d8:3f:de:6c:17:
         e5:90:33:90:99:a7:7c:5f:96:d8:31:62:60:57:f4:bc:81:0b:
         ab:1f:09:a7:db:10:f2:e4:9b:3c:b1:db:b3:03:ec:85:3e:ce:
         83:b5:3d:75:4d:fa:23:4e:d2:9b:66:24:ab:d3:d9:1b:eb:fb:
         59:d0:80:7b:18:62:ec:75:7b:28:e2:cd:fb:5e:1d:f2:f2:84:
         6f:20:cc:ec:31:2a:17:9c:8a:6f:c6:db:10:1e:b3:3e:0b:63:
         17:1c:c5:1c:aa:ab:75:30:20:5d:d8:a9:87:06:f3:f5:38:01:
         6e:69:5e:b3:f1:8c:90:b9:3f:75:8c:b5:02:88:79:e4:f4:4a:
         fe:39:2d:cf
-----BEGIN CERTIFICATE-----
MIIDxzCCAq+gAwIBAgIJAKm69EzPysjWMA0GCSqGSIb3DQEBCwUAMEoxCzAJBgNV
BAYTAlNXMRIwEAYDVQQHDAlTdG9ja2hvbG0xDTALBgNVBAoMBEFDTUUxGDAWBgNV
BAMMD09wZW5WUE4tQUNNRS1DQTAeFw0xNjAzMDMxMzIzNTJaFw0xNjAzMDQxMzIz
NTJaMFcxCzAJBgNVBAYTAlNXMRIwEAYDVQQHDAlTdG9ja2hvbG0xDTALBgNVBAoM
BEFDTUUxJTAjBgNVBAMMHHRlbXBvcmFsX2NlcnRpZmljYXRlLmFjbWUuc3cwggEi
MA0GCSqGSIb3DQEBAQUAA4IBDwAwggEKAoIBAQDJU93yUCE3QlcXVapOomKSS1Zw
QDCFRb7YWA+4mp60BrkfrHUMsIc5lieMbY999I9gmJHvypNLvyn5uWeUpr5POeEI
Dc33/2qGpm9xhxOuHAaMj2UAJYyw97KER1Rkwh4pw1c+Nqh93/9d+kY9vQ2loSFV
Ex4l3yybxMD0JCSCEFTG65zlq0MVscYOjQt7uQQ8LkKSPHifq123h09PIp7HIiF8
Gpg6otPfSwawmp8USLSKH8yOMQPVLwfmI0Rr4uSUUb6PjvZL2AhLI9+HfbVXb3R9
4/bH3hTnoWD4qu3evqw8XA+Li+r081NGeSRNfPmawXEOXSxpruSwogalBEkDAgMB
AAGjgaIwgZ8wCQYDVR0TBAIwADARBglghkgBhvhCAQEEBAMCB4AwCwYDVR0PBAQD
AgeAMBMGA1UdJQQMMAoGCCsGAQUFBwMCMB0GA1UdDgQWBBRwUHDgL/0V1RJ4IRPd
d6ldp9VEWTAfBgNVHSMEGDAWgBRiHgSal71AML/GJL2dXJz77yHL4jAdBgNVHREE
FjAUgRJob3N0bWFzdGVyQGFjbWUuc3cwDQYJKoZIhvcNAQELBQADggEBAFlH8NzW
4Q6OLBdfuKrFR01+qObfuUqohlIa/aTHyn++wgQCmqrl2gDesaF6H2BDsg2O8u96
5vz4RRwOINCG+1THMEKHCkPOdAoKC8SBL+9sfKgHt4Jx/fsOjw4sQLmSXpBw9Vac
bO037eyTTVmW7BqG8IMqN6CKHinYP95sF+WQM5CZp3xfltgxYmBX9LyBC6sfCafb
EPLkmzyx27MD7IU+zoO1PXVN+iNO0ptmJKvT2Rvr+1nQgHsYYux1eyjizfteHfLy
hG8gzOwxKhecim/G2xAesz4LYxccxRyqq3UwIF3YqYcG8/U4AW5pXrPxjJC5P3WM
tQKIeeT0Sv45Lc8=
-----END CERTIFICATE-----
