Certificate:
    Data:
        Version: 3 (0x2)
        Serial Number:
            a9:ba:f4:4c:cf:ca:c8:b1
    Signature Algorithm: sha256WithRSAEncryption
        Issuer: C=SW, L=Stockholm, O=ACME, CN=OpenVPN-ACME-CA
        Validity
            Not Before: Mar  3 12:50:39 2016 GMT
            Not After : Mar  4 12:50:39 2016 GMT
        Subject: C=SW, L=Stockholm, O=ACME, CN=temporal_certificate.acme.sw
        Subject Public Key Info:
            Public Key Algorithm: rsaEncryption
                Public-Key: (2048 bit)
                Modulus:
                    00:e0:e4:29:d0:e9:90:35:7f:8d:ef:6a:ee:65:4a:
                    39:97:30:bf:c5:20:41:8c:18:9a:a7:2f:87:ca:5f:
                    52:ad:d6:d6:49:51:75:6f:7b:9c:2b:d1:16:84:9f:
                    bb:66:f9:53:9c:b0:f6:5e:1a:fc:35:bd:3d:37:3c:
                    07:f9:30:ab:bf:37:2e:1a:8a:3e:f0:85:41:91:72:
                    1d:dd:07:70:65:8b:8d:37:5c:b4:71:00:20:f2:57:
                    33:b7:15:5c:7f:ae:15:27:8c:76:61:dd:54:00:ba:
                    90:c7:7c:80:1c:c6:1a:fb:7c:86:0d:4e:43:00:f7:
                    a2:76:9e:90:7d:9d:30:28:45:05:86:e5:25:94:c1:
                    cc:f0:c9:8b:9e:b7:af:80:39:2b:f1:13:ff:05:99:
                    0c:c7:54:8e:dc:5b:fc:5b:86:bc:f1:8c:57:99:bb:
                    dc:b9:f9:18:74:5a:7e:c9:eb:87:6d:45:a7:05:66:
                    7c:16:71:af:7f:95:db:d7:17:ac:74:f7:12:80:fb:
                    ac:6b:de:f2:50:9f:24:b8:88:61:96:e2:ad:fc:59:
                    4a:3d:06:7b:95:19:cf:96:02:31:d9:89:f0:8d:7d:
                    f4:50:7a:bb:5c:be:e5:77:6c:eb:f4:79:a8:8f:ca:
                    31:9e:9c:39:07:6c:5f:34:9d:6b:e0:90:80:57:60:
                    82:e5
                Exponent: 65537 (0x10001)
        X509v3 extensions:
            X509v3 Basic Constraints: 
                CA:FALSE
            Netscape Cert Type: 
                SSL Client
            X509v3 Key Usage: 
                Digital Signature
            X509v3 Extended Key Usage: 
                TLS Web Client Authentication
            X509v3 Subject Key Identifier: 
                F4:D8:6B:C2:78:CA:1D:2E:F0:83:E4:DF:1B:0B:27:C8:E8:36:79:BB
            X509v3 Authority Key Identifier: 
                keyid:62:1E:04:9A:97:BD:40:30:BF:C6:24:BD:9D:5C:9C:FB:EF:21:CB:E2

            X509v3 Subject Alternative Name: 
                email:hostmaster@acme.sw
    Signature Algorithm: sha256WithRSAEncryption
         50:dc:42:75:ba:27:06:9e:8c:d4:b4:58:79:3b:b8:c9:97:7f:
         c9:14:7a:13:dc:80:5e:fe:e6:8b:69:87:c2:7c:89:51:cb:30:
         f2:96:7c:93:44:22:f3:69:df:e0:7b:74:cc:d4:f6:05:bd:b4:
         95:d4:b7:48:75:20:eb:e0:89:79:eb:d7:03:e0:69:b9:70:29:
         3f:e7:46:92:f7:b3:ab:a7:8c:78:36:98:1b:a0:64:b6:22:7b:
         6b:03:9b:9e:17:1f:6d:1d:3e:b5:d0:46:46:74:9a:3f:11:c3:
         7f:35:a6:65:a8:94:31:f8:fc:61:db:c6:0a:50:7f:63:fb:84:
         51:d8:86:53:8b:a8:1a:9b:10:fb:3c:da:8d:3b:be:98:92:be:
         2e:53:ff:64:8b:13:c0:6b:73:6e:f5:23:81:7b:b2:40:b3:bb:
         a0:83:50:e0:50:eb:e6:f0:5b:b4:4b:ed:28:b4:04:5a:2c:f2:
         42:76:72:a9:bd:6c:7d:ff:a0:c4:19:b3:a2:d4:fa:ed:66:67:
         a2:20:1c:92:f8:d7:24:8f:6d:cd:23:c6:50:98:5b:92:20:cc:
         06:a7:3f:b2:67:de:10:22:a0:a5:05:b2:55:16:c5:bd:05:b3:
         49:12:cb:5c:5c:13:a6:51:09:04:8c:da:d2:f4:86:bc:13:b9:
         b7:46:9f:1d
-----BEGIN CERTIFICATE-----
MIIDxzCCAq+gAwIBAgIJAKm69EzPysixMA0GCSqGSIb3DQEBCwUAMEoxCzAJBgNV
BAYTAlNXMRIwEAYDVQQHDAlTdG9ja2hvbG0xDTALBgNVBAoMBEFDTUUxGDAWBgNV
BAMMD09wZW5WUE4tQUNNRS1DQTAeFw0xNjAzMDMxMjUwMzlaFw0xNjAzMDQxMjUw
MzlaMFcxCzAJBgNVBAYTAlNXMRIwEAYDVQQHDAlTdG9ja2hvbG0xDTALBgNVBAoM
BEFDTUUxJTAjBgNVBAMMHHRlbXBvcmFsX2NlcnRpZmljYXRlLmFjbWUuc3cwggEi
MA0GCSqGSIb3DQEBAQUAA4IBDwAwggEKAoIBAQDg5CnQ6ZA1f43vau5lSjmXML/F
IEGMGJqnL4fKX1Kt1tZJUXVve5wr0RaEn7tm+VOcsPZeGvw1vT03PAf5MKu/Ny4a
ij7whUGRch3dB3Bli403XLRxACDyVzO3FVx/rhUnjHZh3VQAupDHfIAcxhr7fIYN
TkMA96J2npB9nTAoRQWG5SWUwczwyYuet6+AOSvxE/8FmQzHVI7cW/xbhrzxjFeZ
u9y5+Rh0Wn7J64dtRacFZnwWca9/ldvXF6x09xKA+6xr3vJQnyS4iGGW4q38WUo9
BnuVGc+WAjHZifCNffRQertcvuV3bOv0eaiPyjGenDkHbF80nWvgkIBXYILlAgMB
AAGjgaIwgZ8wCQYDVR0TBAIwADARBglghkgBhvhCAQEEBAMCB4AwCwYDVR0PBAQD
AgeAMBMGA1UdJQQMMAoGCCsGAQUFBwMCMB0GA1UdDgQWBBT02GvCeModLvCD5N8b
CyfI6DZ5uzAfBgNVHSMEGDAWgBRiHgSal71AML/GJL2dXJz77yHL4jAdBgNVHREE
FjAUgRJob3N0bWFzdGVyQGFjbWUuc3cwDQYJKoZIhvcNAQELBQADggEBAFDcQnW6
JwaejNS0WHk7uMmXf8kUehPcgF7+5otph8J8iVHLMPKWfJNEIvNp3+B7dMzU9gW9
tJXUt0h1IOvgiXnr1wPgablwKT/nRpL3s6unjHg2mBugZLYie2sDm54XH20dPrXQ
RkZ0mj8Rw381pmWolDH4/GHbxgpQf2P7hFHYhlOLqBqbEPs82o07vpiSvi5T/2SL
E8Brc271I4F7skCzu6CDUOBQ6+bwW7RL7Si0BFos8kJ2cqm9bH3/oMQZs6LU+u1m
Z6IgHJL41ySPbc0jxlCYW5IgzAanP7Jn3hAioKUFslUWxb0Fs0kSy1xcE6ZRCQSM
2tL0hrwTubdGnx0=
-----END CERTIFICATE-----
