Certificate:
    Data:
        Version: 3 (0x2)
        Serial Number:
            a9:ba:f4:4c:cf:ca:c8:d7
    Signature Algorithm: sha256WithRSAEncryption
        Issuer: C=SW, L=Stockholm, O=ACME, CN=OpenVPN-ACME-CA
        Validity
            Not Before: Mar  7 12:15:18 2016 GMT
            Not After : Mar  8 12:15:18 2016 GMT
        Subject: C=SW, L=Stockholm, O=ACME, CN=temporal_certificate_1457352917.acme.sw
        Subject Public Key Info:
            Public Key Algorithm: rsaEncryption
                Public-Key: (2048 bit)
                Modulus:
                    00:9b:eb:cb:7e:3d:79:49:0a:56:2a:6f:b3:63:94:
                    58:60:bf:66:e6:6e:9f:b8:b6:77:f5:1c:d4:b2:1e:
                    f2:09:97:dd:a5:a0:09:9f:32:e0:20:e7:c6:c1:e6:
                    cb:6e:30:bf:f3:7a:77:96:7d:4f:23:cf:4b:75:b8:
                    be:58:7b:b9:5d:12:a4:4a:a3:cd:25:50:b1:b7:3a:
                    a5:9d:e5:bf:b5:17:cf:c1:da:33:94:a7:38:d7:8e:
                    c1:40:fb:e7:d3:31:41:68:1a:e5:25:f9:6f:ba:83:
                    fc:5e:7f:4a:e8:91:08:1e:a9:20:de:65:fa:4d:17:
                    2a:ee:83:bc:20:06:85:af:78:3c:40:8b:a9:45:e5:
                    f4:0f:8f:3e:a0:94:bb:07:86:0f:54:ea:10:00:16:
                    53:dc:d2:17:ad:e2:c9:73:0a:0b:f1:67:e4:cb:a1:
                    c6:41:8a:e2:bb:82:72:3e:29:34:09:f5:df:86:7c:
                    28:7b:17:67:78:98:84:60:fe:97:0b:e6:4f:9f:49:
                    8d:d4:26:42:06:50:23:3d:91:37:9d:4d:1a:fd:e1:
                    de:99:be:d7:4f:52:c1:e4:b0:4e:ad:4b:25:e6:2c:
                    98:e5:6e:31:3f:dc:bd:a6:57:96:f7:db:38:e5:47:
                    fe:77:19:0e:b6:90:7b:dc:98:85:48:38:5c:82:c3:
                    c9:6f
                Exponent: 65537 (0x10001)
        X509v3 extensions:
            X509v3 Basic Constraints: 
                CA:FALSE
            Netscape Cert Type: 
                SSL Client
            X509v3 Key Usage: 
                Digital Signature
            X509v3 Extended Key Usage: 
                TLS Web Client Authentication
            X509v3 Subject Key Identifier: 
                67:BA:06:7B:50:B0:5F:DE:8B:2C:4D:C7:5C:72:F7:30:B7:F0:5F:71
            X509v3 Authority Key Identifier: 
                keyid:62:1E:04:9A:97:BD:40:30:BF:C6:24:BD:9D:5C:9C:FB:EF:21:CB:E2

            X509v3 Subject Alternative Name: 
                email:hostmaster@acme.sw
    Signature Algorithm: sha256WithRSAEncryption
         34:76:1d:ea:df:8f:69:9e:4c:91:a2:6c:50:29:3c:81:86:14:
         65:43:da:3e:b0:4e:a2:2f:11:74:be:44:0a:d8:37:02:21:0e:
         c9:85:33:3c:62:80:82:08:22:6b:72:23:f0:63:82:f0:a5:e5:
         60:cf:9c:8e:3e:46:99:77:b3:ff:1c:cc:f9:4b:f4:e7:b3:f8:
         06:d5:9b:68:98:11:0c:5d:a0:59:65:bf:ae:94:2f:db:82:80:
         33:29:10:51:e4:d7:7e:7b:87:89:d6:bc:c4:3b:e2:93:4b:57:
         77:f4:32:91:19:6c:84:44:12:62:fb:bb:0e:d1:b2:06:0c:85:
         a6:9d:18:71:dc:14:bb:be:e9:4c:39:c9:ad:ac:a5:2b:ef:91:
         51:0a:bb:69:29:1a:c4:e2:8c:5b:b7:f0:c2:0a:20:1e:05:e0:
         21:4b:ea:70:70:09:11:16:b4:f0:8f:af:48:ea:f2:29:37:81:
         11:5b:c0:30:bb:2b:52:0e:67:7b:d2:9c:40:e2:d9:dd:7b:80:
         94:91:30:56:cd:18:bb:6a:e1:54:6f:1d:85:8c:21:ec:f7:01:
         f0:dc:3c:2e:9b:2c:90:ff:c8:20:3b:0c:26:63:28:f8:55:b1:
         30:e1:67:54:a9:a9:8d:fb:02:59:86:64:99:2b:5d:eb:a2:18:
         69:6e:12:89
-----BEGIN CERTIFICATE-----
MIID0jCCArqgAwIBAgIJAKm69EzPysjXMA0GCSqGSIb3DQEBCwUAMEoxCzAJBgNV
BAYTAlNXMRIwEAYDVQQHDAlTdG9ja2hvbG0xDTALBgNVBAoMBEFDTUUxGDAWBgNV
BAMMD09wZW5WUE4tQUNNRS1DQTAeFw0xNjAzMDcxMjE1MThaFw0xNjAzMDgxMjE1
MThaMGIxCzAJBgNVBAYTAlNXMRIwEAYDVQQHDAlTdG9ja2hvbG0xDTALBgNVBAoM
BEFDTUUxMDAuBgNVBAMMJ3RlbXBvcmFsX2NlcnRpZmljYXRlXzE0NTczNTI5MTcu
YWNtZS5zdzCCASIwDQYJKoZIhvcNAQEBBQADggEPADCCAQoCggEBAJvry349eUkK
Vipvs2OUWGC/ZuZun7i2d/Uc1LIe8gmX3aWgCZ8y4CDnxsHmy24wv/N6d5Z9TyPP
S3W4vlh7uV0SpEqjzSVQsbc6pZ3lv7UXz8HaM5SnONeOwUD759MxQWga5SX5b7qD
/F5/SuiRCB6pIN5l+k0XKu6DvCAGha94PECLqUXl9A+PPqCUuweGD1TqEAAWU9zS
F63iyXMKC/Fn5MuhxkGK4ruCcj4pNAn134Z8KHsXZ3iYhGD+lwvmT59JjdQmQgZQ
Iz2RN51NGv3h3pm+109SweSwTq1LJeYsmOVuMT/cvaZXlvfbOOVH/ncZDraQe9yY
hUg4XILDyW8CAwEAAaOBojCBnzAJBgNVHRMEAjAAMBEGCWCGSAGG+EIBAQQEAwIH
gDALBgNVHQ8EBAMCB4AwEwYDVR0lBAwwCgYIKwYBBQUHAwIwHQYDVR0OBBYEFGe6
BntQsF/eiyxNx1xy9zC38F9xMB8GA1UdIwQYMBaAFGIeBJqXvUAwv8YkvZ1cnPvv
IcviMB0GA1UdEQQWMBSBEmhvc3RtYXN0ZXJAYWNtZS5zdzANBgkqhkiG9w0BAQsF
AAOCAQEANHYd6t+PaZ5MkaJsUCk8gYYUZUPaPrBOoi8RdL5ECtg3AiEOyYUzPGKA
gggia3Ij8GOC8KXlYM+cjj5GmXez/xzM+Uv057P4BtWbaJgRDF2gWWW/rpQv24KA
MykQUeTXfnuHida8xDvik0tXd/QykRlshEQSYvu7DtGyBgyFpp0YcdwUu77pTDnJ
raylK++RUQq7aSkaxOKMW7fwwgogHgXgIUvqcHAJERa08I+vSOryKTeBEVvAMLsr
Ug5ne9KcQOLZ3XuAlJEwVs0Yu2rhVG8dhYwh7PcB8Nw8LpsskP/IIDsMJmMo+FWx
MOFnVKmpjfsCWYZkmStd66IYaW4SiQ==
-----END CERTIFICATE-----
