Certificate:
    Data:
        Version: 3 (0x2)
        Serial Number:
            a9:ba:f4:4c:cf:ca:c8:a7
    Signature Algorithm: sha256WithRSAEncryption
        Issuer: C=SW, L=Stockholm, O=ACME, CN=OpenVPN-ACME-CA
        Validity
            Not Before: Mar  2 18:41:32 2016 GMT
            Not After : Mar  3 18:41:32 2016 GMT
        Subject: C=SW, L=Stockholm, O=ACME, CN=temp.acme.sw
        Subject Public Key Info:
            Public Key Algorithm: rsaEncryption
                Public-Key: (2048 bit)
                Modulus:
                    00:c9:5f:02:e9:c1:15:d6:ae:60:ae:09:85:ae:e1:
                    6c:87:03:37:0d:9c:9c:be:fb:bf:45:46:e9:32:ef:
                    d7:c0:0b:ff:13:b0:d1:6c:ce:9e:58:f5:5a:e1:fb:
                    94:98:b3:a7:df:49:91:44:c9:9e:f8:49:ce:fb:b4:
                    97:aa:af:c2:fb:ec:8e:e6:d5:2a:c8:cc:a9:eb:bc:
                    eb:fa:ed:a2:5a:c0:be:b7:12:d7:91:54:a6:c9:21:
                    f3:0e:97:78:0d:c9:87:0d:65:e3:fc:73:6c:fc:26:
                    aa:b3:b4:cf:bc:22:e2:ad:21:05:11:9e:f6:24:9e:
                    0f:93:d0:2f:00:56:85:8d:4c:16:52:d5:80:cf:14:
                    7c:e6:1e:4a:32:86:e4:fb:8d:e2:a2:ca:26:97:bf:
                    1b:1a:ad:1c:cb:4a:c6:70:3a:b2:ec:39:b0:a8:dc:
                    86:17:1b:0e:ff:1e:9f:a5:a8:a3:03:82:22:79:43:
                    24:21:01:7e:9e:df:b0:67:b9:69:c6:ca:eb:bd:56:
                    88:8f:e0:ce:08:66:05:c0:2c:56:ac:4c:fb:69:1c:
                    5f:66:7b:48:4b:56:c1:e5:cc:75:73:25:15:68:3e:
                    ce:77:d5:d4:55:36:37:6d:e6:52:6c:b7:23:40:9a:
                    07:da:10:54:c7:b0:27:4a:e8:36:39:57:0d:3d:86:
                    5b:c9
                Exponent: 65537 (0x10001)
        X509v3 extensions:
            X509v3 Basic Constraints: 
                CA:FALSE
            Netscape Cert Type: 
                SSL Client
            X509v3 Key Usage: 
                Digital Signature
            X509v3 Extended Key Usage: 
                TLS Web Client Authentication
            X509v3 Subject Key Identifier: 
                87:0C:6D:DF:DD:F1:A0:7E:4B:9F:33:3B:BD:CA:E3:A2:6B:4D:ED:32
            X509v3 Authority Key Identifier: 
                keyid:62:1E:04:9A:97:BD:40:30:BF:C6:24:BD:9D:5C:9C:FB:EF:21:CB:E2

            X509v3 Subject Alternative Name: 
                email:hostmaster@acme.sw
    Signature Algorithm: sha256WithRSAEncryption
         b0:7d:62:d1:88:14:73:3d:70:40:ab:43:ae:da:05:9e:5e:c2:
         7c:fe:32:3a:6a:46:a9:f2:84:12:98:d1:d2:0a:c2:10:31:70:
         a0:b4:c4:51:4e:8d:fa:cc:d5:4b:30:5d:da:85:f6:90:f3:e8:
         cf:f5:83:48:ba:1f:48:9e:0d:ed:77:06:6b:64:db:53:68:50:
         f5:f5:74:96:20:c6:72:8e:6f:00:3f:3f:8a:24:8a:d0:de:60:
         02:37:6d:d5:57:fd:c9:31:42:45:34:e9:33:6b:ca:98:e3:e2:
         a0:dd:d3:c2:0a:7f:1d:57:55:fb:ef:a1:97:f9:00:c4:31:17:
         b5:56:06:9a:7f:18:61:6d:f3:1e:78:4e:36:95:d4:6a:ea:d8:
         a5:a3:74:47:1f:9b:b8:8f:0f:f6:02:97:47:29:59:cb:a3:9c:
         e8:47:42:78:57:1b:83:4a:5f:68:65:19:68:c4:77:98:25:01:
         bd:3f:bb:a5:80:a8:25:59:52:10:c8:78:ac:99:00:2d:84:86:
         5d:5d:ff:8a:21:5e:34:c2:82:a9:17:16:b6:98:0b:d8:3e:e0:
         d7:c6:9b:5e:9f:3e:27:e8:03:ff:a8:e6:60:e9:ce:b6:ad:11:
         21:4b:74:45:14:55:dc:77:c7:9b:2a:54:f4:e2:f6:21:df:34:
         b5:33:7e:34
-----BEGIN CERTIFICATE-----
MIIDtzCCAp+gAwIBAgIJAKm69EzPysinMA0GCSqGSIb3DQEBCwUAMEoxCzAJBgNV
BAYTAlNXMRIwEAYDVQQHDAlTdG9ja2hvbG0xDTALBgNVBAoMBEFDTUUxGDAWBgNV
BAMMD09wZW5WUE4tQUNNRS1DQTAeFw0xNjAzMDIxODQxMzJaFw0xNjAzMDMxODQx
MzJaMEcxCzAJBgNVBAYTAlNXMRIwEAYDVQQHDAlTdG9ja2hvbG0xDTALBgNVBAoM
BEFDTUUxFTATBgNVBAMMDHRlbXAuYWNtZS5zdzCCASIwDQYJKoZIhvcNAQEBBQAD
ggEPADCCAQoCggEBAMlfAunBFdauYK4Jha7hbIcDNw2cnL77v0VG6TLv18AL/xOw
0WzOnlj1WuH7lJizp99JkUTJnvhJzvu0l6qvwvvsjubVKsjMqeu86/rtolrAvrcS
15FUpskh8w6XeA3Jhw1l4/xzbPwmqrO0z7wi4q0hBRGe9iSeD5PQLwBWhY1MFlLV
gM8UfOYeSjKG5PuN4qLKJpe/GxqtHMtKxnA6suw5sKjchhcbDv8en6WoowOCInlD
JCEBfp7fsGe5acbK671WiI/gzghmBcAsVqxM+2kcX2Z7SEtWweXMdXMlFWg+znfV
1FU2N23mUmy3I0CaB9oQVMewJ0roNjlXDT2GW8kCAwEAAaOBojCBnzAJBgNVHRME
AjAAMBEGCWCGSAGG+EIBAQQEAwIHgDALBgNVHQ8EBAMCB4AwEwYDVR0lBAwwCgYI
KwYBBQUHAwIwHQYDVR0OBBYEFIcMbd/d8aB+S58zO73K46JrTe0yMB8GA1UdIwQY
MBaAFGIeBJqXvUAwv8YkvZ1cnPvvIcviMB0GA1UdEQQWMBSBEmhvc3RtYXN0ZXJA
YWNtZS5zdzANBgkqhkiG9w0BAQsFAAOCAQEAsH1i0YgUcz1wQKtDrtoFnl7CfP4y
OmpGqfKEEpjR0grCEDFwoLTEUU6N+szVSzBd2oX2kPPoz/WDSLofSJ4N7XcGa2Tb
U2hQ9fV0liDGco5vAD8/iiSK0N5gAjdt1Vf9yTFCRTTpM2vKmOPioN3Twgp/HVdV
+++hl/kAxDEXtVYGmn8YYW3zHnhONpXUaurYpaN0Rx+buI8P9gKXRylZy6Oc6EdC
eFcbg0pfaGUZaMR3mCUBvT+7pYCoJVlSEMh4rJkALYSGXV3/iiFeNMKCqRcWtpgL
2D7g18abXp8+J+gD/6jmYOnOtq0RIUt0RRRV3HfHmypU9OL2Id80tTN+NA==
-----END CERTIFICATE-----
