Certificate:
    Data:
        Version: 3 (0x2)
        Serial Number:
            a9:ba:f4:4c:cf:ca:c8:a5
    Signature Algorithm: sha256WithRSAEncryption
        Issuer: C=SW, L=Stockholm, O=ACME, CN=OpenVPN-ACME-CA
        Validity
            Not Before: Mar  2 18:30:27 2016 GMT
            Not After : Mar  3 18:30:27 2016 GMT
        Subject: C=SW, L=Stockholm, O=ACME, CN=temp.acme.sw
        Subject Public Key Info:
            Public Key Algorithm: rsaEncryption
                Public-Key: (2048 bit)
                Modulus:
                    00:a9:a1:a4:ab:51:7f:be:5f:ce:69:f3:e4:67:72:
                    5b:91:49:a4:b2:67:00:67:ae:b9:0d:67:c9:ff:cd:
                    65:f6:8a:6f:d0:fa:81:03:a2:e6:cd:de:03:21:b0:
                    36:9c:e3:05:f6:6d:6a:65:47:86:04:66:68:77:4f:
                    c6:96:64:fa:ce:57:45:17:4e:61:47:cd:66:0c:06:
                    99:8e:e1:a7:9a:4c:7d:c0:84:80:2f:13:06:5a:b0:
                    6e:b4:08:0f:9f:c6:91:f8:c3:b4:fd:ad:c1:5a:70:
                    b6:a6:4e:68:19:69:4e:7a:67:e0:ac:4a:93:aa:a1:
                    c7:2a:7b:c4:d9:4b:e2:c8:09:a0:28:55:3a:25:7b:
                    8c:81:64:21:a7:71:0e:d3:15:12:1a:07:43:c1:81:
                    14:db:63:56:94:94:8d:0a:75:ce:2c:ac:32:12:f6:
                    70:49:6b:8e:2b:e0:ee:dc:60:9b:ac:2d:12:20:b9:
                    cc:37:18:54:20:93:ef:1a:3a:a2:2a:38:c8:96:11:
                    3d:db:58:f4:f4:a9:39:a1:be:fb:a7:18:e7:7b:d5:
                    ce:73:a3:15:de:5b:26:db:cd:13:6e:7d:10:e7:6f:
                    89:fc:22:f2:f1:13:87:fd:9a:fd:6a:47:a6:a1:3b:
                    b9:0c:bb:93:ef:2b:67:a0:05:ab:ac:83:da:61:d0:
                    c4:c5
                Exponent: 65537 (0x10001)
        X509v3 extensions:
            X509v3 Basic Constraints: 
                CA:FALSE
            Netscape Cert Type: 
                SSL Client
            X509v3 Key Usage: 
                Digital Signature
            X509v3 Extended Key Usage: 
                TLS Web Client Authentication
            X509v3 Subject Key Identifier: 
                DC:3C:B0:84:BD:2B:6F:5F:D3:40:C2:F5:4E:DE:29:C9:0B:E1:46:3D
            X509v3 Authority Key Identifier: 
                keyid:62:1E:04:9A:97:BD:40:30:BF:C6:24:BD:9D:5C:9C:FB:EF:21:CB:E2

            X509v3 Subject Alternative Name: 
                email:hostmaster@acme.sw
    Signature Algorithm: sha256WithRSAEncryption
         05:d9:5c:82:a3:82:b9:f2:e5:70:18:4c:7d:ce:49:00:e4:42:
         e9:0f:1d:c6:87:50:37:05:8e:00:65:5a:50:9f:1e:ee:97:0c:
         5e:ad:8e:cc:f8:dc:7b:00:2a:0b:10:9f:0f:6f:eb:98:e4:7a:
         93:6e:f0:b4:c3:88:cb:c2:79:ee:f2:df:1e:17:9f:4d:b3:3c:
         f3:29:b6:10:26:25:3a:37:34:ff:5a:ca:5c:61:68:62:a1:02:
         3e:4e:1b:cf:d9:be:fc:3e:20:96:85:d0:a9:af:20:79:01:1d:
         94:fc:a1:7a:58:32:35:50:07:20:49:4f:43:c9:35:1a:7c:46:
         eb:5b:27:c9:e2:6c:24:11:2f:9f:ab:bd:e4:b1:a4:c3:db:80:
         68:ee:ef:b2:9e:ac:4a:33:e3:b5:f2:45:48:af:78:33:56:06:
         43:a3:bf:79:45:a1:34:b2:86:83:99:be:7d:49:c9:84:f0:be:
         ec:7d:1e:30:71:f6:12:ad:b2:ac:d1:46:7a:1c:55:92:29:97:
         df:0e:94:18:0b:d5:97:83:a5:fc:da:2e:ed:04:5b:c4:b2:9f:
         31:bf:12:07:48:5b:0f:8c:d9:38:e2:81:60:ec:e3:79:dd:99:
         d0:15:17:4c:f4:78:fc:57:d6:80:c9:1c:ed:45:15:11:b9:1e:
         b5:9b:14:f1
-----BEGIN CERTIFICATE-----
MIIDtzCCAp+gAwIBAgIJAKm69EzPysilMA0GCSqGSIb3DQEBCwUAMEoxCzAJBgNV
BAYTAlNXMRIwEAYDVQQHDAlTdG9ja2hvbG0xDTALBgNVBAoMBEFDTUUxGDAWBgNV
BAMMD09wZW5WUE4tQUNNRS1DQTAeFw0xNjAzMDIxODMwMjdaFw0xNjAzMDMxODMw
MjdaMEcxCzAJBgNVBAYTAlNXMRIwEAYDVQQHDAlTdG9ja2hvbG0xDTALBgNVBAoM
BEFDTUUxFTATBgNVBAMMDHRlbXAuYWNtZS5zdzCCASIwDQYJKoZIhvcNAQEBBQAD
ggEPADCCAQoCggEBAKmhpKtRf75fzmnz5GdyW5FJpLJnAGeuuQ1nyf/NZfaKb9D6
gQOi5s3eAyGwNpzjBfZtamVHhgRmaHdPxpZk+s5XRRdOYUfNZgwGmY7hp5pMfcCE
gC8TBlqwbrQID5/GkfjDtP2twVpwtqZOaBlpTnpn4KxKk6qhxyp7xNlL4sgJoChV
OiV7jIFkIadxDtMVEhoHQ8GBFNtjVpSUjQp1ziysMhL2cElrjivg7txgm6wtEiC5
zDcYVCCT7xo6oio4yJYRPdtY9PSpOaG++6cY53vVznOjFd5bJtvNE259EOdvifwi
8vETh/2a/WpHpqE7uQy7k+8rZ6AFq6yD2mHQxMUCAwEAAaOBojCBnzAJBgNVHRME
AjAAMBEGCWCGSAGG+EIBAQQEAwIHgDALBgNVHQ8EBAMCB4AwEwYDVR0lBAwwCgYI
KwYBBQUHAwIwHQYDVR0OBBYEFNw8sIS9K29f00DC9U7eKckL4UY9MB8GA1UdIwQY
MBaAFGIeBJqXvUAwv8YkvZ1cnPvvIcviMB0GA1UdEQQWMBSBEmhvc3RtYXN0ZXJA
YWNtZS5zdzANBgkqhkiG9w0BAQsFAAOCAQEABdlcgqOCufLlcBhMfc5JAORC6Q8d
xodQNwWOAGVaUJ8e7pcMXq2OzPjcewAqCxCfD2/rmOR6k27wtMOIy8J57vLfHhef
TbM88ym2ECYlOjc0/1rKXGFoYqECPk4bz9m+/D4gloXQqa8geQEdlPyhelgyNVAH
IElPQ8k1GnxG61snyeJsJBEvn6u95LGkw9uAaO7vsp6sSjPjtfJFSK94M1YGQ6O/
eUWhNLKGg5m+fUnJhPC+7H0eMHH2Eq2yrNFGehxVkimX3w6UGAvVl4Ol/Nou7QRb
xLKfMb8SB0hbD4zZOOKBYOzjed2Z0BUXTPR4/FfWgMkc7UUVEbketZsU8Q==
-----END CERTIFICATE-----
