Certificate:
    Data:
        Version: 3 (0x2)
        Serial Number:
            a9:ba:f4:4c:cf:ca:c8:b7
    Signature Algorithm: sha256WithRSAEncryption
        Issuer: C=SW, L=Stockholm, O=ACME, CN=OpenVPN-ACME-CA
        Validity
            Not Before: Mar  3 13:02:10 2016 GMT
            Not After : Mar  4 13:02:10 2016 GMT
        Subject: C=SW, L=Stockholm, O=ACME, CN=temporal_certificate.acme.sw
        Subject Public Key Info:
            Public Key Algorithm: rsaEncryption
                Public-Key: (2048 bit)
                Modulus:
                    00:9d:4b:6f:7f:b4:91:37:9a:b1:5b:bf:7c:9e:5e:
                    fd:91:97:6e:52:77:11:28:98:c5:31:bd:31:4a:fc:
                    bb:6e:cd:31:a6:fb:95:71:13:db:7b:f9:7b:af:b4:
                    18:4c:de:38:48:6e:68:07:c3:86:a1:77:1b:3e:12:
                    34:4c:e3:3e:45:5d:1c:7e:17:62:89:9b:3c:f0:95:
                    c0:5b:cc:8e:e3:aa:dc:21:31:50:63:c0:f9:32:d9:
                    2c:84:b7:af:af:6d:c4:32:d5:2a:cc:09:5b:57:5b:
                    34:f3:f5:5e:d0:28:5b:e7:8c:54:43:a9:89:84:d1:
                    77:23:08:76:2b:65:27:f2:89:50:61:b0:75:e7:af:
                    41:6c:84:79:1d:13:c2:32:3e:8b:f8:41:a9:26:44:
                    fd:2f:75:02:fd:32:0d:43:c8:e0:d8:e4:0a:a8:88:
                    7b:83:2c:28:2b:c5:e5:d9:17:02:61:c0:70:98:12:
                    28:e6:b6:d8:66:3f:ba:1f:68:ac:65:b6:b5:5d:77:
                    e8:ee:1b:8e:f3:2b:3e:e1:a1:22:dc:08:f0:60:46:
                    0d:6e:a9:0f:46:e3:7a:07:34:4a:7e:82:60:ed:08:
                    2f:19:ea:85:bd:c0:f8:2a:b3:02:18:a9:b0:15:57:
                    fe:20:84:1a:1a:6c:b7:d9:17:bf:f9:c8:38:70:fb:
                    f2:d7
                Exponent: 65537 (0x10001)
        X509v3 extensions:
            X509v3 Basic Constraints: 
                CA:FALSE
            Netscape Cert Type: 
                SSL Client
            X509v3 Key Usage: 
                Digital Signature
            X509v3 Extended Key Usage: 
                TLS Web Client Authentication
            X509v3 Subject Key Identifier: 
                95:F0:1C:14:70:75:A0:A9:86:D2:6D:68:3A:A7:3A:CB:B4:80:CD:0B
            X509v3 Authority Key Identifier: 
                keyid:62:1E:04:9A:97:BD:40:30:BF:C6:24:BD:9D:5C:9C:FB:EF:21:CB:E2

            X509v3 Subject Alternative Name: 
                email:hostmaster@acme.sw
    Signature Algorithm: sha256WithRSAEncryption
         5e:a6:f2:ac:e0:4a:97:2c:e2:b1:dd:6e:28:a1:08:5a:b6:54:
         fd:a9:8a:5b:82:a6:c0:78:a7:78:81:9a:1d:aa:c6:fc:be:0d:
         de:ba:3b:99:66:b0:64:1e:4e:27:d1:09:a8:9b:6a:87:0d:87:
         a3:ff:cc:f3:e9:0a:96:52:97:c2:c9:1a:2d:d4:7e:d5:34:45:
         5c:89:67:39:9e:70:6c:1e:d6:98:ba:14:52:a4:74:3c:23:90:
         c2:34:c2:35:c2:12:f6:1a:c6:6c:bc:d3:74:44:a6:bb:c7:98:
         11:d7:a6:39:c6:af:d0:d0:62:a6:a8:5e:f2:18:d7:ee:6f:86:
         62:c1:32:28:e3:e9:f1:be:65:6c:07:83:02:75:18:e4:0f:be:
         11:12:2b:32:9e:94:89:57:70:02:2a:48:f4:03:37:1b:0f:7d:
         6d:d4:40:25:25:b8:cc:91:ee:0b:56:f8:af:5d:fd:c7:6a:58:
         9a:12:cd:77:87:2d:09:13:83:3b:5a:c3:d1:e7:d9:0d:6d:be:
         01:c8:be:76:77:f3:9d:81:b0:d2:82:ef:0b:48:41:40:9c:99:
         13:67:00:92:5e:fa:10:dc:15:86:76:cb:41:10:19:15:80:13:
         c9:41:e9:65:2c:aa:2f:4d:c8:42:99:38:b7:4c:c2:f0:9d:97:
         f5:61:8e:89
-----BEGIN CERTIFICATE-----
MIIDxzCCAq+gAwIBAgIJAKm69EzPysi3MA0GCSqGSIb3DQEBCwUAMEoxCzAJBgNV
BAYTAlNXMRIwEAYDVQQHDAlTdG9ja2hvbG0xDTALBgNVBAoMBEFDTUUxGDAWBgNV
BAMMD09wZW5WUE4tQUNNRS1DQTAeFw0xNjAzMDMxMzAyMTBaFw0xNjAzMDQxMzAy
MTBaMFcxCzAJBgNVBAYTAlNXMRIwEAYDVQQHDAlTdG9ja2hvbG0xDTALBgNVBAoM
BEFDTUUxJTAjBgNVBAMMHHRlbXBvcmFsX2NlcnRpZmljYXRlLmFjbWUuc3cwggEi
MA0GCSqGSIb3DQEBAQUAA4IBDwAwggEKAoIBAQCdS29/tJE3mrFbv3yeXv2Rl25S
dxEomMUxvTFK/LtuzTGm+5VxE9t7+XuvtBhM3jhIbmgHw4ahdxs+EjRM4z5FXRx+
F2KJmzzwlcBbzI7jqtwhMVBjwPky2SyEt6+vbcQy1SrMCVtXWzTz9V7QKFvnjFRD
qYmE0XcjCHYrZSfyiVBhsHXnr0FshHkdE8IyPov4QakmRP0vdQL9Mg1DyODY5Aqo
iHuDLCgrxeXZFwJhwHCYEijmtthmP7ofaKxltrVdd+juG47zKz7hoSLcCPBgRg1u
qQ9G43oHNEp+gmDtCC8Z6oW9wPgqswIYqbAVV/4ghBoabLfZF7/5yDhw+/LXAgMB
AAGjgaIwgZ8wCQYDVR0TBAIwADARBglghkgBhvhCAQEEBAMCB4AwCwYDVR0PBAQD
AgeAMBMGA1UdJQQMMAoGCCsGAQUFBwMCMB0GA1UdDgQWBBSV8BwUcHWgqYbSbWg6
pzrLtIDNCzAfBgNVHSMEGDAWgBRiHgSal71AML/GJL2dXJz77yHL4jAdBgNVHREE
FjAUgRJob3N0bWFzdGVyQGFjbWUuc3cwDQYJKoZIhvcNAQELBQADggEBAF6m8qzg
Spcs4rHdbiihCFq2VP2piluCpsB4p3iBmh2qxvy+Dd66O5lmsGQeTifRCaibaocN
h6P/zPPpCpZSl8LJGi3UftU0RVyJZzmecGwe1pi6FFKkdDwjkMI0wjXCEvYaxmy8
03REprvHmBHXpjnGr9DQYqaoXvIY1+5vhmLBMijj6fG+ZWwHgwJ1GOQPvhESKzKe
lIlXcAIqSPQDNxsPfW3UQCUluMyR7gtW+K9d/cdqWJoSzXeHLQkTgztaw9Hn2Q1t
vgHIvnZ3852BsNKC7wtIQUCcmRNnAJJe+hDcFYZ2y0EQGRWAE8lB6WUsqi9NyEKZ
OLdMwvCdl/Vhjok=
-----END CERTIFICATE-----
