Certificate:
    Data:
        Version: 3 (0x2)
        Serial Number:
            a9:ba:f4:4c:cf:ca:c8:a1
    Signature Algorithm: sha256WithRSAEncryption
        Issuer: C=SW, L=Stockholm, O=ACME, CN=OpenVPN-ACME-CA
        Validity
            Not Before: Mar  2 18:24:06 2016 GMT
            Not After : Mar  3 18:24:06 2016 GMT
        Subject: C=SW, L=Stockholm, O=ACME, CN=temp.acme.sw
        Subject Public Key Info:
            Public Key Algorithm: rsaEncryption
                Public-Key: (2048 bit)
                Modulus:
                    00:f5:a3:90:95:36:de:c1:f6:c6:87:d0:11:39:6c:
                    85:ec:72:cb:f9:cc:a7:4b:e7:d3:f2:7f:74:b2:21:
                    4f:3e:51:36:78:1d:1c:8f:c6:10:e2:f2:e3:d9:d0:
                    f4:8d:5b:89:ec:f4:4a:20:34:7d:17:39:5b:6a:ed:
                    ba:c1:53:a6:78:ba:6c:40:de:00:b1:da:46:45:43:
                    c5:b3:1e:17:ad:84:ea:46:77:7f:72:74:ac:99:71:
                    3e:9b:b3:5d:dd:b8:49:9a:89:41:bc:96:f9:7e:a8:
                    94:4b:e3:a5:5c:de:ee:4f:ab:dd:87:44:77:16:d4:
                    6b:71:c2:e7:f2:0b:c5:8a:51:14:54:b3:48:20:3d:
                    da:c9:0f:4d:b3:f1:69:b0:23:05:b7:0c:11:7d:3c:
                    aa:87:84:dc:6c:1f:bd:ea:a9:d1:97:c4:43:84:c0:
                    da:90:98:9a:88:05:8b:95:1e:6d:f7:b4:d8:81:81:
                    5f:07:65:18:35:46:e5:aa:56:d4:45:64:16:a9:16:
                    78:56:5a:04:68:34:fe:7c:98:bb:4e:68:07:bc:5c:
                    82:fb:e5:11:44:76:2e:b0:f6:b6:9b:4a:f0:8e:0f:
                    57:25:7d:b4:bc:54:51:b1:d8:b4:62:e0:1a:f7:56:
                    da:c8:d7:ee:7a:25:ea:b1:de:04:c7:12:8d:71:d7:
                    3a:b9
                Exponent: 65537 (0x10001)
        X509v3 extensions:
            X509v3 Basic Constraints: 
                CA:FALSE
            Netscape Cert Type: 
                SSL Client
            X509v3 Key Usage: 
                Digital Signature
            X509v3 Extended Key Usage: 
                TLS Web Client Authentication
            X509v3 Subject Key Identifier: 
                FA:75:4E:CD:FE:3E:A5:E9:6B:21:6C:E3:05:7E:2A:8A:B4:61:D9:13
            X509v3 Authority Key Identifier: 
                keyid:62:1E:04:9A:97:BD:40:30:BF:C6:24:BD:9D:5C:9C:FB:EF:21:CB:E2

            X509v3 Subject Alternative Name: 
                email:hostmaster@acme.sw
    Signature Algorithm: sha256WithRSAEncryption
         1d:b2:0e:ca:d5:85:e0:36:0d:97:5e:de:be:c0:c7:26:a7:a1:
         eb:d2:6a:06:4a:fe:6e:84:b7:e3:ff:dc:b9:3b:16:f4:0d:9b:
         6f:6c:18:a5:35:55:9b:cd:86:bc:5d:d7:ca:a7:de:8c:d1:ad:
         3c:c7:ee:90:9c:02:d7:0e:7c:b9:86:6d:2e:d4:e8:ec:40:db:
         01:0b:08:2f:b7:23:09:20:17:4c:91:cf:d2:ae:09:25:07:4d:
         44:68:d6:04:ad:8b:11:7b:73:33:18:c3:ea:4f:02:31:cf:5b:
         ec:57:33:b8:f7:00:4a:10:b8:8d:f0:0b:ae:5e:83:6d:cb:0a:
         e5:7e:78:f5:ac:70:6f:c1:da:fb:e9:79:b1:d7:9d:0e:3c:41:
         68:84:2a:1c:3e:78:e7:39:14:90:de:0d:62:13:d4:f9:b4:40:
         9c:17:b9:5e:f6:c8:5c:f5:d8:c4:7f:d0:81:a5:c0:0d:16:a5:
         50:6a:97:f3:d4:dd:62:db:f1:a2:8c:a7:2b:28:13:f3:34:6c:
         b4:3c:8c:ba:8f:46:6c:a7:3c:67:54:92:77:6b:63:b4:e7:c6:
         0a:77:cb:97:67:a2:da:de:4f:a4:4b:bb:7f:9d:33:fa:bd:74:
         b5:1a:09:1d:25:95:c0:d2:11:11:db:d4:df:0d:9c:3e:1e:20:
         6f:e0:ad:d5
-----BEGIN CERTIFICATE-----
MIIDtzCCAp+gAwIBAgIJAKm69EzPysihMA0GCSqGSIb3DQEBCwUAMEoxCzAJBgNV
BAYTAlNXMRIwEAYDVQQHDAlTdG9ja2hvbG0xDTALBgNVBAoMBEFDTUUxGDAWBgNV
BAMMD09wZW5WUE4tQUNNRS1DQTAeFw0xNjAzMDIxODI0MDZaFw0xNjAzMDMxODI0
MDZaMEcxCzAJBgNVBAYTAlNXMRIwEAYDVQQHDAlTdG9ja2hvbG0xDTALBgNVBAoM
BEFDTUUxFTATBgNVBAMMDHRlbXAuYWNtZS5zdzCCASIwDQYJKoZIhvcNAQEBBQAD
ggEPADCCAQoCggEBAPWjkJU23sH2xofQETlshexyy/nMp0vn0/J/dLIhTz5RNngd
HI/GEOLy49nQ9I1biez0SiA0fRc5W2rtusFTpni6bEDeALHaRkVDxbMeF62E6kZ3
f3J0rJlxPpuzXd24SZqJQbyW+X6olEvjpVze7k+r3YdEdxbUa3HC5/ILxYpRFFSz
SCA92skPTbPxabAjBbcMEX08qoeE3Gwfveqp0ZfEQ4TA2pCYmogFi5Uebfe02IGB
XwdlGDVG5apW1EVkFqkWeFZaBGg0/nyYu05oB7xcgvvlEUR2LrD2tptK8I4PVyV9
tLxUUbHYtGLgGvdW2sjX7nol6rHeBMcSjXHXOrkCAwEAAaOBojCBnzAJBgNVHRME
AjAAMBEGCWCGSAGG+EIBAQQEAwIHgDALBgNVHQ8EBAMCB4AwEwYDVR0lBAwwCgYI
KwYBBQUHAwIwHQYDVR0OBBYEFPp1Ts3+PqXpayFs4wV+Koq0YdkTMB8GA1UdIwQY
MBaAFGIeBJqXvUAwv8YkvZ1cnPvvIcviMB0GA1UdEQQWMBSBEmhvc3RtYXN0ZXJA
YWNtZS5zdzANBgkqhkiG9w0BAQsFAAOCAQEAHbIOytWF4DYNl17evsDHJqeh69Jq
Bkr+boS34//cuTsW9A2bb2wYpTVVm82GvF3XyqfejNGtPMfukJwC1w58uYZtLtTo
7EDbAQsIL7cjCSAXTJHP0q4JJQdNRGjWBK2LEXtzMxjD6k8CMc9b7FczuPcAShC4
jfALrl6DbcsK5X549axwb8Ha++l5sdedDjxBaIQqHD545zkUkN4NYhPU+bRAnBe5
XvbIXPXYxH/QgaXADRalUGqX89TdYtvxooynKygT8zRstDyMuo9GbKc8Z1SSd2tj
tOfGCnfLl2ei2t5PpEu7f50z+r10tRoJHSWVwNIREdvU3w2cPh4gb+Ct1Q==
-----END CERTIFICATE-----
