Certificate:
    Data:
        Version: 3 (0x2)
        Serial Number:
            a9:ba:f4:4c:cf:ca:c8:ba
    Signature Algorithm: sha256WithRSAEncryption
        Issuer: C=SW, L=Stockholm, O=ACME, CN=OpenVPN-ACME-CA
        Validity
            Not Before: Mar  3 13:02:28 2016 GMT
            Not After : Mar  4 13:02:28 2016 GMT
        Subject: C=SW, L=Stockholm, O=ACME, CN=temporal_certificate.acme.sw
        Subject Public Key Info:
            Public Key Algorithm: rsaEncryption
                Public-Key: (2048 bit)
                Modulus:
                    00:bb:09:d4:10:40:63:ab:18:da:61:36:b6:24:12:
                    3d:b6:fb:05:ef:a1:25:fd:2b:07:9e:e0:6f:0e:06:
                    ed:85:8a:28:2d:d3:ae:53:3c:b8:a7:48:92:e8:60:
                    19:46:ef:34:2f:5d:22:e2:3c:8b:d8:05:70:d3:37:
                    fb:6f:02:ee:24:a5:7b:f0:26:dd:b5:16:9c:7a:14:
                    04:24:7f:97:f3:eb:1b:3c:73:15:54:3c:af:2c:45:
                    f7:43:ae:a8:9c:71:a5:92:37:05:39:ad:c9:3c:b7:
                    c3:31:72:ac:8d:74:e4:de:e6:3e:c0:4b:e7:a8:86:
                    37:0c:dc:b6:0a:df:45:38:8d:c2:b8:07:f9:74:89:
                    80:39:4f:5c:18:f4:b9:c1:13:23:9a:e1:85:1f:e3:
                    a9:73:34:d7:d3:2c:d0:2d:39:c6:f5:86:2a:e3:78:
                    40:99:34:95:2c:d6:85:a6:5e:24:58:48:6d:b4:dc:
                    4a:75:0b:9b:04:6b:ec:30:6c:da:9f:24:a2:cb:5b:
                    56:19:2a:0b:a7:e4:cd:12:95:7d:89:5b:a9:8c:d1:
                    f6:78:75:fc:47:92:31:f0:86:9d:6c:db:21:52:40:
                    71:6e:67:d9:0e:e8:e4:31:77:a1:28:03:cf:e9:89:
                    07:08:3c:0c:f8:90:1b:c9:94:57:82:41:f7:1e:a6:
                    4b:c3
                Exponent: 65537 (0x10001)
        X509v3 extensions:
            X509v3 Basic Constraints: 
                CA:FALSE
            Netscape Cert Type: 
                SSL Client
            X509v3 Key Usage: 
                Digital Signature
            X509v3 Extended Key Usage: 
                TLS Web Client Authentication
            X509v3 Subject Key Identifier: 
                0D:0B:FA:82:65:74:9C:84:D3:CC:9F:DB:B0:31:ED:F5:18:5E:77:67
            X509v3 Authority Key Identifier: 
                keyid:62:1E:04:9A:97:BD:40:30:BF:C6:24:BD:9D:5C:9C:FB:EF:21:CB:E2

            X509v3 Subject Alternative Name: 
                email:hostmaster@acme.sw
    Signature Algorithm: sha256WithRSAEncryption
         1c:69:7b:57:35:31:bc:90:90:d4:a2:ed:a4:3b:4e:59:79:b0:
         b5:8f:77:93:da:04:a6:5d:f2:35:7d:41:ec:f9:2c:6c:ca:69:
         dd:c9:42:4f:ff:11:6c:c3:04:42:66:29:5a:de:09:2f:f0:97:
         24:8c:8c:dc:86:27:08:a3:dd:ca:81:09:27:4c:51:db:94:c1:
         6e:c5:fe:fb:ce:ee:57:ea:65:58:ab:bb:60:c1:f0:0b:3f:b8:
         ac:e9:f7:a7:f7:6c:c8:cd:47:2e:32:3c:27:7b:17:20:3f:a5:
         43:bc:6b:db:df:03:4c:02:46:c3:08:60:08:6e:ac:69:0d:13:
         89:cb:7a:8f:49:58:aa:9d:8b:01:4c:ad:c8:0f:24:40:3e:5c:
         c4:8a:67:d6:ab:9f:71:53:e2:89:ca:5b:59:d6:cb:e5:51:6d:
         35:6b:fa:ae:6b:b5:5c:ca:dc:fc:55:b4:b8:40:07:6e:1e:de:
         31:ac:ea:2f:12:a7:c9:7b:4c:7d:ce:de:9d:64:d1:d2:f4:ba:
         8c:cb:48:3f:85:da:76:2e:a2:0c:f0:af:c5:cd:a4:cd:e9:22:
         a8:b0:03:f4:f7:30:a2:2b:cc:a7:2a:ca:01:a4:0c:50:59:f8:
         4c:37:61:6a:03:9b:94:ed:9a:03:1b:f0:e3:94:95:53:80:41:
         75:79:a2:24
-----BEGIN CERTIFICATE-----
MIIDxzCCAq+gAwIBAgIJAKm69EzPysi6MA0GCSqGSIb3DQEBCwUAMEoxCzAJBgNV
BAYTAlNXMRIwEAYDVQQHDAlTdG9ja2hvbG0xDTALBgNVBAoMBEFDTUUxGDAWBgNV
BAMMD09wZW5WUE4tQUNNRS1DQTAeFw0xNjAzMDMxMzAyMjhaFw0xNjAzMDQxMzAy
MjhaMFcxCzAJBgNVBAYTAlNXMRIwEAYDVQQHDAlTdG9ja2hvbG0xDTALBgNVBAoM
BEFDTUUxJTAjBgNVBAMMHHRlbXBvcmFsX2NlcnRpZmljYXRlLmFjbWUuc3cwggEi
MA0GCSqGSIb3DQEBAQUAA4IBDwAwggEKAoIBAQC7CdQQQGOrGNphNrYkEj22+wXv
oSX9Kwee4G8OBu2Fiigt065TPLinSJLoYBlG7zQvXSLiPIvYBXDTN/tvAu4kpXvw
Jt21Fpx6FAQkf5fz6xs8cxVUPK8sRfdDrqiccaWSNwU5rck8t8MxcqyNdOTe5j7A
S+eohjcM3LYK30U4jcK4B/l0iYA5T1wY9LnBEyOa4YUf46lzNNfTLNAtOcb1hirj
eECZNJUs1oWmXiRYSG203Ep1C5sEa+wwbNqfJKLLW1YZKgun5M0SlX2JW6mM0fZ4
dfxHkjHwhp1s2yFSQHFuZ9kO6OQxd6EoA8/piQcIPAz4kBvJlFeCQfcepkvDAgMB
AAGjgaIwgZ8wCQYDVR0TBAIwADARBglghkgBhvhCAQEEBAMCB4AwCwYDVR0PBAQD
AgeAMBMGA1UdJQQMMAoGCCsGAQUFBwMCMB0GA1UdDgQWBBQNC/qCZXSchNPMn9uw
Me31GF53ZzAfBgNVHSMEGDAWgBRiHgSal71AML/GJL2dXJz77yHL4jAdBgNVHREE
FjAUgRJob3N0bWFzdGVyQGFjbWUuc3cwDQYJKoZIhvcNAQELBQADggEBABxpe1c1
MbyQkNSi7aQ7Tll5sLWPd5PaBKZd8jV9Qez5LGzKad3JQk//EWzDBEJmKVreCS/w
lySMjNyGJwij3cqBCSdMUduUwW7F/vvO7lfqZViru2DB8As/uKzp96f3bMjNRy4y
PCd7FyA/pUO8a9vfA0wCRsMIYAhurGkNE4nLeo9JWKqdiwFMrcgPJEA+XMSKZ9ar
n3FT4onKW1nWy+VRbTVr+q5rtVzK3PxVtLhAB24e3jGs6i8Sp8l7TH3O3p1k0dL0
uozLSD+F2nYuogzwr8XNpM3pIqiwA/T3MKIrzKcqygGkDFBZ+Ew3YWoDm5TtmgMb
8OOUlVOAQXV5oiQ=
-----END CERTIFICATE-----
