Certificate:
    Data:
        Version: 3 (0x2)
        Serial Number:
            a9:ba:f4:4c:cf:ca:c8:c6
    Signature Algorithm: sha256WithRSAEncryption
        Issuer: C=SW, L=Stockholm, O=ACME, CN=OpenVPN-ACME-CA
        Validity
            Not Before: Mar  3 13:08:00 2016 GMT
            Not After : Mar  4 13:08:00 2016 GMT
        Subject: C=SW, L=Stockholm, O=ACME, CN=temporal_certificate.acme.sw
        Subject Public Key Info:
            Public Key Algorithm: rsaEncryption
                Public-Key: (2048 bit)
                Modulus:
                    00:c2:b7:12:8d:98:8c:95:16:73:2c:15:e5:1c:73:
                    2c:83:64:48:ed:82:f0:fb:f6:7b:0b:0b:6e:b8:8c:
                    4f:46:b7:cc:bf:b6:0e:4d:f9:84:09:2c:94:0c:9c:
                    6a:84:91:8c:2d:05:56:0e:8a:f4:91:2c:5d:35:bf:
                    05:4f:9b:16:04:d4:27:5c:4f:d6:3e:ee:50:50:b4:
                    f6:7c:e6:9f:e7:c9:f3:e5:33:00:52:06:4f:a2:a4:
                    89:ca:0a:8a:5e:3d:ee:7d:5b:2d:86:c8:65:ba:91:
                    b7:4b:13:4c:f7:2a:52:67:f7:dc:9a:19:1a:04:ba:
                    c4:9c:51:ea:45:35:c5:16:21:4a:e2:3a:87:d5:1d:
                    8b:4b:1b:e7:aa:ce:68:b8:07:64:86:f9:ed:8e:72:
                    0c:65:06:71:89:f5:b2:fb:99:ff:39:4e:68:6d:34:
                    17:30:ee:4d:05:ff:9d:78:a3:92:55:af:a2:e1:a5:
                    61:01:2c:3a:ae:d3:d7:10:0d:84:b1:d1:98:b6:bf:
                    7d:ea:68:05:5e:e9:97:4b:5b:a6:ec:51:8f:96:97:
                    27:54:34:fd:a3:f1:d0:23:05:ee:ba:75:9f:d4:f4:
                    b5:ab:6b:bc:c6:54:84:29:c5:49:1f:21:33:04:8a:
                    c0:91:07:59:f4:78:39:98:d7:0e:80:fb:13:1c:c5:
                    81:af
                Exponent: 65537 (0x10001)
        X509v3 extensions:
            X509v3 Basic Constraints: 
                CA:FALSE
            Netscape Cert Type: 
                SSL Client
            X509v3 Key Usage: 
                Digital Signature
            X509v3 Extended Key Usage: 
                TLS Web Client Authentication
            X509v3 Subject Key Identifier: 
                5C:0E:0B:CE:BF:B3:C1:64:24:6D:5D:83:10:CE:18:C8:E5:8F:83:50
            X509v3 Authority Key Identifier: 
                keyid:62:1E:04:9A:97:BD:40:30:BF:C6:24:BD:9D:5C:9C:FB:EF:21:CB:E2

            X509v3 Subject Alternative Name: 
                email:hostmaster@acme.sw
    Signature Algorithm: sha256WithRSAEncryption
         1d:52:d7:0f:a5:54:62:3c:cc:40:91:f4:41:84:f0:de:5a:4d:
         6b:55:32:58:51:75:55:18:63:8a:57:a8:09:aa:33:49:f2:3c:
         35:0d:e6:1b:d2:5a:e6:07:c6:7a:24:d3:2e:57:82:62:e3:cc:
         c8:d0:44:34:42:d6:a2:08:d9:28:65:f4:10:c7:66:e9:df:eb:
         c8:fd:1b:d3:b9:a4:12:47:79:5a:10:83:e2:81:6d:61:a7:1d:
         1e:9b:c3:c0:bf:64:f6:56:5b:28:5b:5a:49:bc:0a:a0:ed:c1:
         43:41:00:01:90:3d:dc:11:81:44:eb:5a:e4:ce:54:c5:b9:3e:
         ed:cc:82:17:c9:10:da:39:1e:1a:23:ac:c3:76:e6:59:8a:1c:
         27:57:26:8a:f0:25:23:7d:f3:99:b1:48:91:b5:16:07:88:4f:
         a6:02:05:b2:69:9a:7c:e1:cd:3a:d9:0b:08:aa:98:c0:db:d2:
         02:53:09:84:38:39:9c:81:64:95:b2:aa:5e:77:b6:d6:b4:17:
         09:55:8e:9d:92:bc:67:72:bf:cf:d2:cf:38:63:83:06:42:11:
         ce:5b:81:fb:46:73:da:83:79:64:15:dc:9f:61:6c:d7:22:38:
         21:44:ce:bd:be:0b:86:c9:f1:12:2b:95:89:2e:7c:d0:02:0e:
         e6:e8:50:7e
-----BEGIN CERTIFICATE-----
MIIDxzCCAq+gAwIBAgIJAKm69EzPysjGMA0GCSqGSIb3DQEBCwUAMEoxCzAJBgNV
BAYTAlNXMRIwEAYDVQQHDAlTdG9ja2hvbG0xDTALBgNVBAoMBEFDTUUxGDAWBgNV
BAMMD09wZW5WUE4tQUNNRS1DQTAeFw0xNjAzMDMxMzA4MDBaFw0xNjAzMDQxMzA4
MDBaMFcxCzAJBgNVBAYTAlNXMRIwEAYDVQQHDAlTdG9ja2hvbG0xDTALBgNVBAoM
BEFDTUUxJTAjBgNVBAMMHHRlbXBvcmFsX2NlcnRpZmljYXRlLmFjbWUuc3cwggEi
MA0GCSqGSIb3DQEBAQUAA4IBDwAwggEKAoIBAQDCtxKNmIyVFnMsFeUccyyDZEjt
gvD79nsLC264jE9Gt8y/tg5N+YQJLJQMnGqEkYwtBVYOivSRLF01vwVPmxYE1Cdc
T9Y+7lBQtPZ85p/nyfPlMwBSBk+ipInKCopePe59Wy2GyGW6kbdLE0z3KlJn99ya
GRoEusScUepFNcUWIUriOofVHYtLG+eqzmi4B2SG+e2OcgxlBnGJ9bL7mf85Tmht
NBcw7k0F/514o5JVr6LhpWEBLDqu09cQDYSx0Zi2v33qaAVe6ZdLW6bsUY+WlydU
NP2j8dAjBe66dZ/U9LWra7zGVIQpxUkfITMEisCRB1n0eDmY1w6A+xMcxYGvAgMB
AAGjgaIwgZ8wCQYDVR0TBAIwADARBglghkgBhvhCAQEEBAMCB4AwCwYDVR0PBAQD
AgeAMBMGA1UdJQQMMAoGCCsGAQUFBwMCMB0GA1UdDgQWBBRcDgvOv7PBZCRtXYMQ
zhjI5Y+DUDAfBgNVHSMEGDAWgBRiHgSal71AML/GJL2dXJz77yHL4jAdBgNVHREE
FjAUgRJob3N0bWFzdGVyQGFjbWUuc3cwDQYJKoZIhvcNAQELBQADggEBAB1S1w+l
VGI8zECR9EGE8N5aTWtVMlhRdVUYY4pXqAmqM0nyPDUN5hvSWuYHxnok0y5XgmLj
zMjQRDRC1qII2Shl9BDHZunf68j9G9O5pBJHeVoQg+KBbWGnHR6bw8C/ZPZWWyhb
Wkm8CqDtwUNBAAGQPdwRgUTrWuTOVMW5Pu3MghfJENo5HhojrMN25lmKHCdXJorw
JSN985mxSJG1FgeIT6YCBbJpmnzhzTrZCwiqmMDb0gJTCYQ4OZyBZJWyql53tta0
FwlVjp2SvGdyv8/SzzhjgwZCEc5bgftGc9qDeWQV3J9hbNciOCFEzr2+C4bJ8RIr
lYkufNACDuboUH4=
-----END CERTIFICATE-----
