Certificate:
    Data:
        Version: 3 (0x2)
        Serial Number:
            a9:ba:f4:4c:cf:ca:c8:b5
    Signature Algorithm: sha256WithRSAEncryption
        Issuer: C=SW, L=Stockholm, O=ACME, CN=OpenVPN-ACME-CA
        Validity
            Not Before: Mar  3 12:58:44 2016 GMT
            Not After : Mar  4 12:58:44 2016 GMT
        Subject: C=SW, L=Stockholm, O=ACME, CN=temporal_certificate.acme.sw
        Subject Public Key Info:
            Public Key Algorithm: rsaEncryption
                Public-Key: (2048 bit)
                Modulus:
                    00:b8:5e:2c:40:94:59:33:ae:36:76:5e:1f:06:01:
                    6a:00:3c:54:2a:31:48:23:0e:ee:f8:53:aa:91:55:
                    b1:57:fe:79:1e:d4:6f:a9:5c:99:e9:6e:51:f7:c9:
                    cf:9f:34:37:0a:c9:3e:43:d0:4d:a5:6d:c2:18:cf:
                    1f:ec:44:5a:5c:04:f2:1f:62:6c:aa:65:d9:61:c5:
                    bc:54:34:14:c7:ac:e8:05:00:c0:4b:0a:f3:6c:0d:
                    78:d0:86:43:1b:42:9f:6f:d0:d2:2c:f5:22:a8:79:
                    f7:e2:0d:72:64:45:50:c9:e8:86:9f:2a:89:c9:64:
                    41:79:f3:e1:87:69:56:f9:e9:7b:8b:6c:e3:02:6c:
                    a8:fe:17:25:ac:94:fb:52:8f:51:d8:2f:b8:99:0e:
                    f2:23:29:28:a4:83:31:0b:6f:86:b3:9d:7a:e0:6c:
                    cf:32:bc:38:78:9c:58:9c:54:95:af:3d:45:d3:d2:
                    8b:7f:b7:06:32:a5:f6:56:c7:99:85:90:f4:db:30:
                    58:be:d3:c1:d8:d0:2f:60:b2:fb:a9:ef:93:fb:29:
                    40:66:84:93:83:33:62:a9:6b:8c:fb:c8:3b:2d:49:
                    83:4a:f0:16:68:91:5b:1e:60:b3:fe:e2:1a:c7:00:
                    13:59:f8:72:43:26:00:c0:ff:c5:29:66:0e:c3:e5:
                    59:e5
                Exponent: 65537 (0x10001)
        X509v3 extensions:
            X509v3 Basic Constraints: 
                CA:FALSE
            Netscape Cert Type: 
                SSL Client
            X509v3 Key Usage: 
                Digital Signature
            X509v3 Extended Key Usage: 
                TLS Web Client Authentication
            X509v3 Subject Key Identifier: 
                71:9D:43:02:04:46:8D:97:DD:CC:19:7E:2A:67:C4:CB:21:99:C5:52
            X509v3 Authority Key Identifier: 
                keyid:62:1E:04:9A:97:BD:40:30:BF:C6:24:BD:9D:5C:9C:FB:EF:21:CB:E2

            X509v3 Subject Alternative Name: 
                email:hostmaster@acme.sw
    Signature Algorithm: sha256WithRSAEncryption
         18:a2:2d:26:78:ba:06:8c:88:21:53:b0:c7:db:05:ee:06:fe:
         e1:20:c2:1d:3c:6b:0d:89:ef:4f:b3:21:96:3a:32:f1:ca:fd:
         11:fc:6a:be:60:3c:72:49:33:bb:e0:1e:7f:b5:00:71:51:08:
         3c:9e:7e:c8:4f:bc:1c:0c:f7:4f:86:09:f5:32:7a:4b:ac:73:
         f2:a0:45:e1:5b:d6:2c:9a:68:cd:3a:39:4a:b7:96:ea:31:cd:
         0e:36:f2:e2:88:3a:60:d2:bc:14:68:57:72:85:a4:1d:3a:dd:
         57:da:95:c3:f7:21:61:19:fe:90:c8:3f:2c:df:20:73:e5:75:
         24:1b:2d:9f:d1:04:6c:b6:79:9b:a8:0d:7c:ad:cb:6a:f9:05:
         23:3d:08:2c:4b:75:e7:1b:53:9d:82:95:e7:d3:f9:7f:19:7a:
         0a:09:19:1c:0c:f5:a2:e1:ab:24:72:51:11:5d:7f:17:ac:e7:
         c3:3f:f6:bd:f6:29:68:d9:89:77:cf:32:c1:38:8c:1c:88:0b:
         2f:d2:13:f6:2d:52:97:f3:bc:6c:fc:57:49:1d:07:84:b6:92:
         80:70:f3:61:3e:ef:34:2a:37:34:22:f5:0c:0c:a9:e0:ff:c6:
         47:8b:a1:bb:f7:a0:9c:a4:86:f9:78:88:38:65:f4:d4:09:ae:
         a4:56:aa:90
-----BEGIN CERTIFICATE-----
MIIDxzCCAq+gAwIBAgIJAKm69EzPysi1MA0GCSqGSIb3DQEBCwUAMEoxCzAJBgNV
BAYTAlNXMRIwEAYDVQQHDAlTdG9ja2hvbG0xDTALBgNVBAoMBEFDTUUxGDAWBgNV
BAMMD09wZW5WUE4tQUNNRS1DQTAeFw0xNjAzMDMxMjU4NDRaFw0xNjAzMDQxMjU4
NDRaMFcxCzAJBgNVBAYTAlNXMRIwEAYDVQQHDAlTdG9ja2hvbG0xDTALBgNVBAoM
BEFDTUUxJTAjBgNVBAMMHHRlbXBvcmFsX2NlcnRpZmljYXRlLmFjbWUuc3cwggEi
MA0GCSqGSIb3DQEBAQUAA4IBDwAwggEKAoIBAQC4XixAlFkzrjZ2Xh8GAWoAPFQq
MUgjDu74U6qRVbFX/nke1G+pXJnpblH3yc+fNDcKyT5D0E2lbcIYzx/sRFpcBPIf
YmyqZdlhxbxUNBTHrOgFAMBLCvNsDXjQhkMbQp9v0NIs9SKoeffiDXJkRVDJ6Iaf
KonJZEF58+GHaVb56XuLbOMCbKj+FyWslPtSj1HYL7iZDvIjKSikgzELb4aznXrg
bM8yvDh4nFicVJWvPUXT0ot/twYypfZWx5mFkPTbMFi+08HY0C9gsvup75P7KUBm
hJODM2Kpa4z7yDstSYNK8BZokVseYLP+4hrHABNZ+HJDJgDA/8UpZg7D5VnlAgMB
AAGjgaIwgZ8wCQYDVR0TBAIwADARBglghkgBhvhCAQEEBAMCB4AwCwYDVR0PBAQD
AgeAMBMGA1UdJQQMMAoGCCsGAQUFBwMCMB0GA1UdDgQWBBRxnUMCBEaNl93MGX4q
Z8TLIZnFUjAfBgNVHSMEGDAWgBRiHgSal71AML/GJL2dXJz77yHL4jAdBgNVHREE
FjAUgRJob3N0bWFzdGVyQGFjbWUuc3cwDQYJKoZIhvcNAQELBQADggEBABiiLSZ4
ugaMiCFTsMfbBe4G/uEgwh08aw2J70+zIZY6MvHK/RH8ar5gPHJJM7vgHn+1AHFR
CDyefshPvBwM90+GCfUyekusc/KgReFb1iyaaM06OUq3luoxzQ428uKIOmDSvBRo
V3KFpB063VfalcP3IWEZ/pDIPyzfIHPldSQbLZ/RBGy2eZuoDXyty2r5BSM9CCxL
decbU52ClefT+X8ZegoJGRwM9aLhqyRyURFdfxes58M/9r32KWjZiXfPMsE4jByI
Cy/SE/YtUpfzvGz8V0kdB4S2koBw82E+7zQqNzQi9QwMqeD/xkeLobv3oJykhvl4
iDhl9NQJrqRWqpA=
-----END CERTIFICATE-----
