Certificate:
    Data:
        Version: 3 (0x2)
        Serial Number:
            a9:ba:f4:4c:cf:ca:c8:d8
    Signature Algorithm: sha256WithRSAEncryption
        Issuer: C=SW, L=Stockholm, O=ACME, CN=OpenVPN-ACME-CA
        Validity
            Not Before: Mar  7 12:16:10 2016 GMT
            Not After : Mar  8 12:16:10 2016 GMT
        Subject: C=SW, L=Stockholm, O=ACME, CN=temporal_certificate_1457352970.acme.sw
        Subject Public Key Info:
            Public Key Algorithm: rsaEncryption
                Public-Key: (2048 bit)
                Modulus:
                    00:b2:5f:cc:c4:3e:13:a6:78:af:da:24:99:1c:af:
                    2d:d3:d2:ae:f0:9e:5f:9b:d3:8f:28:80:1b:6a:05:
                    cf:7e:97:22:cf:cc:d2:0e:15:d1:de:8e:e8:d9:13:
                    0c:8e:fc:b3:43:5d:2c:3b:b6:a0:44:32:de:b7:ac:
                    64:54:02:86:06:f4:7e:10:cd:d1:c4:9c:f5:42:30:
                    e8:45:98:57:2b:3e:83:f1:05:bb:7a:65:1a:bd:7f:
                    20:92:d7:47:94:f0:3a:ca:16:fc:e9:bd:fe:a8:ce:
                    b7:ef:2a:12:98:0b:81:53:e8:18:3d:1c:a5:d2:4d:
                    28:1d:0c:09:51:f8:ee:ac:d8:99:d8:e4:ac:29:e2:
                    fc:f4:8e:ba:63:21:97:2c:90:d5:17:2f:29:fe:2a:
                    24:84:bb:30:c8:d4:7c:91:c3:ce:48:df:67:71:89:
                    4e:0b:87:ab:2a:d5:8c:60:a4:c8:bb:6b:df:08:ea:
                    08:09:04:9f:7f:02:93:39:6d:5c:92:5c:71:fc:1e:
                    d3:d8:0c:c9:ad:c8:df:49:bc:7d:cb:f2:7a:12:6a:
                    9e:55:cb:d8:88:fa:f0:db:36:35:d3:ba:2e:7d:22:
                    32:a7:fd:35:bc:25:d1:45:f4:58:e4:cc:ae:25:cb:
                    72:f1:93:81:a6:e7:14:a7:01:d8:7c:ca:f2:aa:b5:
                    80:53
                Exponent: 65537 (0x10001)
        X509v3 extensions:
            X509v3 Basic Constraints: 
                CA:FALSE
            Netscape Cert Type: 
                SSL Client
            X509v3 Key Usage: 
                Digital Signature
            X509v3 Extended Key Usage: 
                TLS Web Client Authentication
            X509v3 Subject Key Identifier: 
                25:1C:62:B3:DB:32:62:CD:D6:87:E4:34:0C:31:88:AE:C1:02:8C:42
            X509v3 Authority Key Identifier: 
                keyid:62:1E:04:9A:97:BD:40:30:BF:C6:24:BD:9D:5C:9C:FB:EF:21:CB:E2

            X509v3 Subject Alternative Name: 
                email:hostmaster@acme.sw
    Signature Algorithm: sha256WithRSAEncryption
         3f:de:9c:b3:32:f5:1d:d3:45:ef:79:c7:dc:b9:88:16:42:b9:
         d9:0e:a3:3c:26:dd:2a:90:9c:fe:e0:d2:3d:4b:37:43:a3:67:
         d6:1c:f4:2f:0b:97:15:43:e0:9d:d9:53:c7:1a:7d:fc:f4:e1:
         92:81:b1:d8:68:f6:21:30:6d:6a:ac:b6:1a:08:50:93:54:4e:
         d5:a7:7d:d2:2b:03:b0:08:19:7c:10:fd:f4:e3:83:14:96:68:
         9c:a3:fb:5c:46:79:5d:4d:ea:28:34:db:46:24:78:dc:64:a1:
         65:a0:3c:44:91:8c:40:1e:3f:fe:5f:59:6b:15:df:24:b4:85:
         5c:57:5f:93:f2:07:bf:24:2b:33:cf:a7:ba:7e:27:29:96:53:
         54:63:d0:bb:7d:d2:2b:a6:66:99:7c:dc:e4:85:aa:a4:0c:e7:
         3c:f1:1c:97:f7:ed:f7:df:03:c0:fc:fa:75:9a:41:92:a6:b9:
         14:32:fa:66:fd:29:06:40:77:1b:31:4f:3e:5b:d8:c8:9d:3a:
         5c:dc:c8:c8:0a:c1:95:57:f8:5f:df:78:e8:d8:57:a5:fd:a7:
         89:be:69:b9:13:88:dd:78:49:d8:d6:48:60:29:2f:fa:2e:7d:
         c0:90:76:dc:51:64:a6:9d:75:fb:1c:b1:2e:c2:1b:a1:a3:53:
         b6:b2:94:77
-----BEGIN CERTIFICATE-----
MIID0jCCArqgAwIBAgIJAKm69EzPysjYMA0GCSqGSIb3DQEBCwUAMEoxCzAJBgNV
BAYTAlNXMRIwEAYDVQQHDAlTdG9ja2hvbG0xDTALBgNVBAoMBEFDTUUxGDAWBgNV
BAMMD09wZW5WUE4tQUNNRS1DQTAeFw0xNjAzMDcxMjE2MTBaFw0xNjAzMDgxMjE2
MTBaMGIxCzAJBgNVBAYTAlNXMRIwEAYDVQQHDAlTdG9ja2hvbG0xDTALBgNVBAoM
BEFDTUUxMDAuBgNVBAMMJ3RlbXBvcmFsX2NlcnRpZmljYXRlXzE0NTczNTI5NzAu
YWNtZS5zdzCCASIwDQYJKoZIhvcNAQEBBQADggEPADCCAQoCggEBALJfzMQ+E6Z4
r9okmRyvLdPSrvCeX5vTjyiAG2oFz36XIs/M0g4V0d6O6NkTDI78s0NdLDu2oEQy
3resZFQChgb0fhDN0cSc9UIw6EWYVys+g/EFu3plGr1/IJLXR5TwOsoW/Om9/qjO
t+8qEpgLgVPoGD0cpdJNKB0MCVH47qzYmdjkrCni/PSOumMhlyyQ1RcvKf4qJIS7
MMjUfJHDzkjfZ3GJTguHqyrVjGCkyLtr3wjqCAkEn38CkzltXJJccfwe09gMya3I
30m8fcvyehJqnlXL2Ij68Ns2NdO6Ln0iMqf9Nbwl0UX0WOTMriXLcvGTgabnFKcB
2HzK8qq1gFMCAwEAAaOBojCBnzAJBgNVHRMEAjAAMBEGCWCGSAGG+EIBAQQEAwIH
gDALBgNVHQ8EBAMCB4AwEwYDVR0lBAwwCgYIKwYBBQUHAwIwHQYDVR0OBBYEFCUc
YrPbMmLN1ofkNAwxiK7BAoxCMB8GA1UdIwQYMBaAFGIeBJqXvUAwv8YkvZ1cnPvv
IcviMB0GA1UdEQQWMBSBEmhvc3RtYXN0ZXJAYWNtZS5zdzANBgkqhkiG9w0BAQsF
AAOCAQEAP96cszL1HdNF73nH3LmIFkK52Q6jPCbdKpCc/uDSPUs3Q6Nn1hz0LwuX
FUPgndlTxxp9/PThkoGx2Gj2ITBtaqy2GghQk1RO1ad90isDsAgZfBD99OODFJZo
nKP7XEZ5XU3qKDTbRiR43GShZaA8RJGMQB4//l9ZaxXfJLSFXFdfk/IHvyQrM8+n
un4nKZZTVGPQu33SK6ZmmXzc5IWqpAznPPEcl/ft998DwPz6dZpBkqa5FDL6Zv0p
BkB3GzFPPlvYyJ06XNzIyArBlVf4X9946NhXpf2nib5puROI3XhJ2NZIYCkv+i59
wJB23FFkpp11+xyxLsIboaNTtrKUdw==
-----END CERTIFICATE-----
