Certificate:
    Data:
        Version: 3 (0x2)
        Serial Number:
            a9:ba:f4:4c:cf:ca:c8:a4
    Signature Algorithm: sha256WithRSAEncryption
        Issuer: C=SW, L=Stockholm, O=ACME, CN=OpenVPN-ACME-CA
        Validity
            Not Before: Mar  2 18:29:52 2016 GMT
            Not After : Mar  3 18:29:52 2016 GMT
        Subject: C=SW, L=Stockholm, O=ACME, CN=temp.acme.sw
        Subject Public Key Info:
            Public Key Algorithm: rsaEncryption
                Public-Key: (2048 bit)
                Modulus:
                    00:c1:f5:c2:cf:e7:d6:fd:7f:7b:b4:73:c3:7f:27:
                    be:de:0e:d3:f2:30:e4:d6:be:ec:0f:5a:71:a3:9a:
                    e5:0d:3b:19:aa:3f:df:c4:fc:7c:55:2c:33:f5:f5:
                    85:8c:1c:9a:be:cc:79:42:36:09:b0:a7:4e:c4:1f:
                    a6:1c:f8:d6:38:f6:81:f9:85:e5:bf:72:42:cb:7c:
                    2e:9e:53:b6:ce:74:81:40:13:64:75:08:3f:63:a1:
                    3c:3d:66:f5:ee:b1:12:20:56:30:3e:85:bf:d4:99:
                    45:9e:e8:14:35:d4:0b:39:04:31:a8:94:75:94:8a:
                    64:b9:c0:65:24:ec:1d:1a:1b:6d:10:51:70:82:ac:
                    35:5c:69:57:84:85:b9:31:0b:05:f0:e2:8b:d6:b0:
                    83:9c:b6:89:05:dd:bb:5d:30:88:1c:75:51:69:a0:
                    68:64:63:81:c1:38:c8:29:df:6f:23:8a:28:26:40:
                    80:aa:9a:96:48:d5:c9:50:55:95:e4:c8:98:1a:80:
                    29:22:b3:37:fb:04:a7:e5:b6:8d:a2:d4:19:d4:c4:
                    b4:3f:5b:2a:ed:a3:60:91:4c:fe:ca:86:21:0b:02:
                    01:e4:c1:bc:f3:29:88:fe:ca:0c:07:68:04:ee:87:
                    9b:a1:bf:1a:78:df:f9:a3:cc:75:b2:35:3e:57:c6:
                    44:f5
                Exponent: 65537 (0x10001)
        X509v3 extensions:
            X509v3 Basic Constraints: 
                CA:FALSE
            Netscape Cert Type: 
                SSL Client
            X509v3 Key Usage: 
                Digital Signature
            X509v3 Extended Key Usage: 
                TLS Web Client Authentication
            X509v3 Subject Key Identifier: 
                63:50:AC:0F:BB:F7:AF:6F:9E:F2:8F:1D:4B:FB:D7:74:88:A2:01:45
            X509v3 Authority Key Identifier: 
                keyid:62:1E:04:9A:97:BD:40:30:BF:C6:24:BD:9D:5C:9C:FB:EF:21:CB:E2

            X509v3 Subject Alternative Name: 
                email:hostmaster@acme.sw
    Signature Algorithm: sha256WithRSAEncryption
         2a:29:c9:64:d5:ad:ee:b6:5f:8b:0c:d2:19:a4:d5:38:ce:7e:
         fa:0b:88:41:25:8e:61:97:73:21:bf:b1:d3:78:9b:da:c4:66:
         70:d3:7f:fa:7d:dc:e6:55:bc:5c:41:24:22:c6:e6:46:02:f9:
         d0:10:b6:5d:84:9f:96:3b:fe:79:34:41:5b:9d:9a:33:bc:9c:
         b5:cb:a2:6e:9a:1f:07:84:3e:87:66:51:27:ef:e8:2d:e1:2c:
         e5:46:32:e2:4d:97:5e:98:19:9f:2f:bd:ac:ff:bf:bb:96:96:
         3c:26:7f:db:6b:52:c0:02:84:c1:74:54:2a:ac:5d:80:c5:e6:
         d3:00:15:3e:69:1e:cc:34:f2:0d:49:46:08:e2:ed:4e:97:f7:
         a1:1a:ce:66:17:5b:8f:35:00:ba:4f:b0:16:f3:27:38:c1:f5:
         33:35:d6:c0:fe:44:b6:6f:32:10:58:5e:27:3a:96:d8:a1:bf:
         dc:72:cb:bc:84:0e:22:6a:99:ae:17:8d:df:1c:c2:9b:7b:6b:
         f4:89:fc:69:3b:9b:28:12:94:f0:2c:cb:69:d8:88:e8:37:4f:
         0a:43:de:a4:9b:76:b4:f1:11:a7:c6:2f:f9:f6:e0:8c:d8:0a:
         41:20:fa:6e:86:9f:a1:c4:fb:af:14:00:24:64:d9:1e:c5:14:
         b2:25:1d:0f
-----BEGIN CERTIFICATE-----
MIIDtzCCAp+gAwIBAgIJAKm69EzPysikMA0GCSqGSIb3DQEBCwUAMEoxCzAJBgNV
BAYTAlNXMRIwEAYDVQQHDAlTdG9ja2hvbG0xDTALBgNVBAoMBEFDTUUxGDAWBgNV
BAMMD09wZW5WUE4tQUNNRS1DQTAeFw0xNjAzMDIxODI5NTJaFw0xNjAzMDMxODI5
NTJaMEcxCzAJBgNVBAYTAlNXMRIwEAYDVQQHDAlTdG9ja2hvbG0xDTALBgNVBAoM
BEFDTUUxFTATBgNVBAMMDHRlbXAuYWNtZS5zdzCCASIwDQYJKoZIhvcNAQEBBQAD
ggEPADCCAQoCggEBAMH1ws/n1v1/e7Rzw38nvt4O0/Iw5Na+7A9acaOa5Q07Gao/
38T8fFUsM/X1hYwcmr7MeUI2CbCnTsQfphz41jj2gfmF5b9yQst8Lp5Tts50gUAT
ZHUIP2OhPD1m9e6xEiBWMD6Fv9SZRZ7oFDXUCzkEMaiUdZSKZLnAZSTsHRobbRBR
cIKsNVxpV4SFuTELBfDii9awg5y2iQXdu10wiBx1UWmgaGRjgcE4yCnfbyOKKCZA
gKqalkjVyVBVleTImBqAKSKzN/sEp+W2jaLUGdTEtD9bKu2jYJFM/sqGIQsCAeTB
vPMpiP7KDAdoBO6Hm6G/Gnjf+aPMdbI1PlfGRPUCAwEAAaOBojCBnzAJBgNVHRME
AjAAMBEGCWCGSAGG+EIBAQQEAwIHgDALBgNVHQ8EBAMCB4AwEwYDVR0lBAwwCgYI
KwYBBQUHAwIwHQYDVR0OBBYEFGNQrA+7969vnvKPHUv713SIogFFMB8GA1UdIwQY
MBaAFGIeBJqXvUAwv8YkvZ1cnPvvIcviMB0GA1UdEQQWMBSBEmhvc3RtYXN0ZXJA
YWNtZS5zdzANBgkqhkiG9w0BAQsFAAOCAQEAKinJZNWt7rZfiwzSGaTVOM5++guI
QSWOYZdzIb+x03ib2sRmcNN/+n3c5lW8XEEkIsbmRgL50BC2XYSfljv+eTRBW52a
M7yctcuibpofB4Q+h2ZRJ+/oLeEs5UYy4k2XXpgZny+9rP+/u5aWPCZ/22tSwAKE
wXRUKqxdgMXm0wAVPmkezDTyDUlGCOLtTpf3oRrOZhdbjzUAuk+wFvMnOMH1MzXW
wP5Etm8yEFheJzqW2KG/3HLLvIQOImqZrheN3xzCm3tr9In8aTubKBKU8CzLadiI
6DdPCkPepJt2tPERp8Yv+fbgjNgKQSD6boafocT7rxQAJGTZHsUUsiUdDw==
-----END CERTIFICATE-----
