Certificate:
    Data:
        Version: 3 (0x2)
        Serial Number:
            a9:ba:f4:4c:cf:ca:c8:d5
    Signature Algorithm: sha256WithRSAEncryption
        Issuer: C=SW, L=Stockholm, O=ACME, CN=OpenVPN-ACME-CA
        Validity
            Not Before: Mar  3 13:23:41 2016 GMT
            Not After : Mar  4 13:23:41 2016 GMT
        Subject: C=SW, L=Stockholm, O=ACME, CN=temporal_certificate.acme.sw
        Subject Public Key Info:
            Public Key Algorithm: rsaEncryption
                Public-Key: (2048 bit)
                Modulus:
                    00:b5:c9:40:4f:6f:3e:3e:85:fa:e6:3c:34:96:38:
                    5e:e0:8c:a1:d2:4a:b1:b6:73:89:dc:f3:db:ad:48:
                    65:c2:69:ec:3f:a5:0c:3e:5c:11:30:01:63:8b:32:
                    28:a9:f6:97:9e:d1:4f:a0:16:be:fd:eb:5a:b6:a8:
                    6d:f6:8e:86:1b:cc:39:db:97:d3:94:fc:f7:2b:70:
                    38:de:90:59:e4:13:49:ea:36:4d:ec:02:3a:df:55:
                    3d:74:ab:63:e9:73:7d:4a:d4:45:30:52:64:b5:2d:
                    ee:94:16:10:20:32:5e:7a:ad:2f:b1:1f:0d:b1:ad:
                    07:e4:77:2e:d2:14:73:2e:1f:f4:62:ac:03:b4:98:
                    0a:5e:03:7e:7a:e3:12:0c:7f:e2:c8:4e:32:72:62:
                    91:6e:97:4f:9d:cc:e1:33:de:2c:0f:98:ac:e1:e8:
                    82:74:87:42:26:f2:81:35:1e:d7:bc:6f:e4:b6:a3:
                    f8:98:5d:c7:2a:05:26:9e:2e:33:82:91:23:76:35:
                    ca:76:7b:50:c3:80:8e:07:e1:7b:de:19:64:04:6d:
                    f4:af:d2:72:4c:d4:05:5a:65:8c:95:f5:0d:44:a8:
                    b4:7f:61:b1:19:33:d9:57:68:86:40:80:26:00:9a:
                    b0:72:25:ff:3a:8b:ad:64:2d:3b:2c:56:69:0b:9d:
                    b2:0f
                Exponent: 65537 (0x10001)
        X509v3 extensions:
            X509v3 Basic Constraints: 
                CA:FALSE
            Netscape Cert Type: 
                SSL Client
            X509v3 Key Usage: 
                Digital Signature
            X509v3 Extended Key Usage: 
                TLS Web Client Authentication
            X509v3 Subject Key Identifier: 
                0A:77:16:25:3D:85:76:47:A0:CC:78:DE:7D:AC:D3:41:3A:1C:6B:7A
            X509v3 Authority Key Identifier: 
                keyid:62:1E:04:9A:97:BD:40:30:BF:C6:24:BD:9D:5C:9C:FB:EF:21:CB:E2

            X509v3 Subject Alternative Name: 
                email:hostmaster@acme.sw
    Signature Algorithm: sha256WithRSAEncryption
         44:b2:b3:a5:5b:3d:29:2e:1b:3d:04:e0:39:6a:7b:df:5e:ce:
         98:c9:b4:00:bd:2d:ad:24:fe:df:58:49:b1:bb:dd:70:ea:b5:
         b1:74:73:81:89:6a:c6:92:1c:f3:f1:e6:ae:4f:0e:65:c8:60:
         8a:a1:0b:b5:08:16:e9:4c:92:52:50:2f:76:d4:0b:af:f3:fc:
         bb:b4:20:29:4b:2c:85:52:f8:c9:35:cc:6f:9b:2f:0a:92:a8:
         93:37:4c:bd:fa:9d:11:a7:be:60:47:79:d3:49:76:b9:de:87:
         4d:dc:74:f0:32:d2:f0:f6:74:ed:55:1a:52:61:98:6b:7e:c3:
         61:28:ce:a9:4b:ef:f7:0b:46:31:99:46:70:01:40:c4:d6:92:
         13:bd:ff:94:ed:69:b5:40:30:e3:92:3f:38:b0:34:02:82:c6:
         49:23:b1:26:2c:82:87:30:ef:d8:a4:a4:b6:40:91:21:43:aa:
         8a:e4:f4:df:09:54:85:fb:8f:d9:13:66:d0:09:60:08:34:e7:
         37:76:eb:c1:74:79:85:af:1d:da:dc:b4:34:e0:c1:b8:88:83:
         cf:24:a4:ae:9b:8a:ba:a0:67:8e:6b:47:8b:e2:32:ab:30:96:
         9b:0f:ed:53:eb:70:7e:29:2a:f8:13:24:ec:a6:2c:04:c3:ce:
         b8:4f:d1:3c
-----BEGIN CERTIFICATE-----
MIIDxzCCAq+gAwIBAgIJAKm69EzPysjVMA0GCSqGSIb3DQEBCwUAMEoxCzAJBgNV
BAYTAlNXMRIwEAYDVQQHDAlTdG9ja2hvbG0xDTALBgNVBAoMBEFDTUUxGDAWBgNV
BAMMD09wZW5WUE4tQUNNRS1DQTAeFw0xNjAzMDMxMzIzNDFaFw0xNjAzMDQxMzIz
NDFaMFcxCzAJBgNVBAYTAlNXMRIwEAYDVQQHDAlTdG9ja2hvbG0xDTALBgNVBAoM
BEFDTUUxJTAjBgNVBAMMHHRlbXBvcmFsX2NlcnRpZmljYXRlLmFjbWUuc3cwggEi
MA0GCSqGSIb3DQEBAQUAA4IBDwAwggEKAoIBAQC1yUBPbz4+hfrmPDSWOF7gjKHS
SrG2c4nc89utSGXCaew/pQw+XBEwAWOLMiip9pee0U+gFr7961q2qG32joYbzDnb
l9OU/PcrcDjekFnkE0nqNk3sAjrfVT10q2Ppc31K1EUwUmS1Le6UFhAgMl56rS+x
Hw2xrQfkdy7SFHMuH/RirAO0mApeA3564xIMf+LITjJyYpFul0+dzOEz3iwPmKzh
6IJ0h0Im8oE1Hte8b+S2o/iYXccqBSaeLjOCkSN2Ncp2e1DDgI4H4XveGWQEbfSv
0nJM1AVaZYyV9Q1EqLR/YbEZM9lXaIZAgCYAmrByJf86i61kLTssVmkLnbIPAgMB
AAGjgaIwgZ8wCQYDVR0TBAIwADARBglghkgBhvhCAQEEBAMCB4AwCwYDVR0PBAQD
AgeAMBMGA1UdJQQMMAoGCCsGAQUFBwMCMB0GA1UdDgQWBBQKdxYlPYV2R6DMeN59
rNNBOhxrejAfBgNVHSMEGDAWgBRiHgSal71AML/GJL2dXJz77yHL4jAdBgNVHREE
FjAUgRJob3N0bWFzdGVyQGFjbWUuc3cwDQYJKoZIhvcNAQELBQADggEBAESys6Vb
PSkuGz0E4Dlqe99ezpjJtAC9La0k/t9YSbG73XDqtbF0c4GJasaSHPPx5q5PDmXI
YIqhC7UIFulMklJQL3bUC6/z/Lu0IClLLIVS+Mk1zG+bLwqSqJM3TL36nRGnvmBH
edNJdrneh03cdPAy0vD2dO1VGlJhmGt+w2EozqlL7/cLRjGZRnABQMTWkhO9/5Tt
abVAMOOSPziwNAKCxkkjsSYsgocw79ikpLZAkSFDqork9N8JVIX7j9kTZtAJYAg0
5zd268F0eYWvHdrctDTgwbiIg88kpK6birqgZ45rR4viMqswlpsP7VPrcH4pKvgT
JOymLATDzrhP0Tw=
-----END CERTIFICATE-----
