Certificate:
    Data:
        Version: 3 (0x2)
        Serial Number:
            a9:ba:f4:4c:cf:ca:c8:b4
    Signature Algorithm: sha256WithRSAEncryption
        Issuer: C=SW, L=Stockholm, O=ACME, CN=OpenVPN-ACME-CA
        Validity
            Not Before: Mar  3 12:58:34 2016 GMT
            Not After : Mar  4 12:58:34 2016 GMT
        Subject: C=SW, L=Stockholm, O=ACME, CN=temporal_certificate.acme.sw
        Subject Public Key Info:
            Public Key Algorithm: rsaEncryption
                Public-Key: (2048 bit)
                Modulus:
                    00:b9:ea:b5:e0:83:80:3e:0a:17:51:00:9a:8f:e2:
                    04:4e:2d:10:a7:66:41:ee:48:96:f6:75:be:13:dc:
                    20:6a:8d:76:d0:6b:2e:e5:43:9b:e6:54:d9:56:ff:
                    4a:ce:d8:fd:d1:4f:00:75:e2:c0:51:dd:da:56:d1:
                    32:e3:7e:ea:fb:db:3c:00:58:c5:5b:af:21:ca:2e:
                    0d:de:de:5b:be:9a:94:5c:03:1c:e2:c2:a3:b2:23:
                    e5:a4:ed:80:ce:38:a3:7c:97:82:94:81:a9:eb:b1:
                    45:81:d8:da:5f:09:29:e4:c9:92:e3:52:e2:96:dd:
                    10:11:e6:4c:08:30:40:f8:06:81:4e:93:f5:80:84:
                    ba:42:39:5d:d8:86:8d:ef:fb:3d:2e:6f:ee:b5:ef:
                    fb:9d:da:6b:2a:fc:9a:e1:0b:e1:4f:a8:84:99:f2:
                    5f:6c:66:9a:c9:3b:be:e8:fd:b0:83:22:eb:47:0b:
                    f5:0d:6d:e6:6d:d2:1d:82:3a:8f:ce:fa:b6:51:fa:
                    9c:47:f3:d0:3b:db:8b:ca:94:80:cf:bc:33:17:8d:
                    b9:7a:21:56:d9:91:ef:68:01:a0:ad:15:53:7e:60:
                    79:c3:1c:ba:e0:d1:d2:12:58:75:4a:a1:99:d2:a8:
                    44:4b:36:ce:f4:05:66:11:d7:fe:79:04:5e:26:6c:
                    f5:d7
                Exponent: 65537 (0x10001)
        X509v3 extensions:
            X509v3 Basic Constraints: 
                CA:FALSE
            Netscape Cert Type: 
                SSL Client
            X509v3 Key Usage: 
                Digital Signature
            X509v3 Extended Key Usage: 
                TLS Web Client Authentication
            X509v3 Subject Key Identifier: 
                7C:1D:70:A9:09:8B:FD:18:76:8C:D2:39:7F:D5:CD:F6:DE:CC:6B:D8
            X509v3 Authority Key Identifier: 
                keyid:62:1E:04:9A:97:BD:40:30:BF:C6:24:BD:9D:5C:9C:FB:EF:21:CB:E2

            X509v3 Subject Alternative Name: 
                email:hostmaster@acme.sw
    Signature Algorithm: sha256WithRSAEncryption
         c1:d2:c3:7b:fb:97:fb:b8:ac:4e:2e:65:1e:d8:e8:59:66:ea:
         a4:fd:a1:56:bf:05:98:1f:b4:b3:6e:25:03:2e:f6:45:72:57:
         e0:35:88:9c:b9:2d:60:31:75:38:0a:6e:e0:4b:b6:21:ff:cd:
         49:fd:1a:f8:f9:32:6b:61:02:fe:d1:7d:c7:5f:b8:07:71:80:
         e4:91:f1:fa:7d:69:a0:49:73:11:4a:36:da:40:ed:16:6b:76:
         8a:4b:0e:76:cb:1a:2f:f9:b3:98:d8:91:3e:bd:1a:38:e1:0a:
         44:34:96:05:0d:62:96:14:e2:88:5b:53:a3:a6:66:1f:b7:62:
         f9:f2:46:d3:ce:14:14:6d:59:55:99:d9:e9:67:15:27:1e:52:
         36:90:73:b7:c6:c7:03:ce:c7:37:4c:32:a3:d0:b5:34:3d:39:
         60:e5:46:61:f8:5d:d9:d7:f1:05:50:21:05:27:55:b7:b4:47:
         da:08:90:41:18:9b:5c:84:3a:e2:58:ac:ec:e8:fc:01:ec:c4:
         f6:f0:68:e5:8e:aa:d8:e3:3e:00:b4:a8:45:74:94:27:0f:3d:
         dc:d7:bb:f1:bb:a3:e5:e2:35:cc:41:f0:a4:49:ea:9a:33:ff:
         30:cc:5c:7f:7d:49:8c:bc:49:c8:6f:e2:d3:00:29:5e:4b:44:
         de:72:5e:7d
-----BEGIN CERTIFICATE-----
MIIDxzCCAq+gAwIBAgIJAKm69EzPysi0MA0GCSqGSIb3DQEBCwUAMEoxCzAJBgNV
BAYTAlNXMRIwEAYDVQQHDAlTdG9ja2hvbG0xDTALBgNVBAoMBEFDTUUxGDAWBgNV
BAMMD09wZW5WUE4tQUNNRS1DQTAeFw0xNjAzMDMxMjU4MzRaFw0xNjAzMDQxMjU4
MzRaMFcxCzAJBgNVBAYTAlNXMRIwEAYDVQQHDAlTdG9ja2hvbG0xDTALBgNVBAoM
BEFDTUUxJTAjBgNVBAMMHHRlbXBvcmFsX2NlcnRpZmljYXRlLmFjbWUuc3cwggEi
MA0GCSqGSIb3DQEBAQUAA4IBDwAwggEKAoIBAQC56rXgg4A+ChdRAJqP4gROLRCn
ZkHuSJb2db4T3CBqjXbQay7lQ5vmVNlW/0rO2P3RTwB14sBR3dpW0TLjfur72zwA
WMVbryHKLg3e3lu+mpRcAxziwqOyI+Wk7YDOOKN8l4KUganrsUWB2NpfCSnkyZLj
UuKW3RAR5kwIMED4BoFOk/WAhLpCOV3Yho3v+z0ub+617/ud2msq/JrhC+FPqISZ
8l9sZprJO77o/bCDIutHC/UNbeZt0h2COo/O+rZR+pxH89A724vKlIDPvDMXjbl6
IVbZke9oAaCtFVN+YHnDHLrg0dISWHVKoZnSqERLNs70BWYR1/55BF4mbPXXAgMB
AAGjgaIwgZ8wCQYDVR0TBAIwADARBglghkgBhvhCAQEEBAMCB4AwCwYDVR0PBAQD
AgeAMBMGA1UdJQQMMAoGCCsGAQUFBwMCMB0GA1UdDgQWBBR8HXCpCYv9GHaM0jl/
1c323sxr2DAfBgNVHSMEGDAWgBRiHgSal71AML/GJL2dXJz77yHL4jAdBgNVHREE
FjAUgRJob3N0bWFzdGVyQGFjbWUuc3cwDQYJKoZIhvcNAQELBQADggEBAMHSw3v7
l/u4rE4uZR7Y6Flm6qT9oVa/BZgftLNuJQMu9kVyV+A1iJy5LWAxdTgKbuBLtiH/
zUn9Gvj5MmthAv7RfcdfuAdxgOSR8fp9aaBJcxFKNtpA7RZrdopLDnbLGi/5s5jY
kT69GjjhCkQ0lgUNYpYU4ohbU6OmZh+3YvnyRtPOFBRtWVWZ2elnFSceUjaQc7fG
xwPOxzdMMqPQtTQ9OWDlRmH4XdnX8QVQIQUnVbe0R9oIkEEYm1yEOuJYrOzo/AHs
xPbwaOWOqtjjPgC0qEV0lCcPPdzXu/G7o+XiNcxB8KRJ6poz/zDMXH99SYy8Schv
4tMAKV5LRN5yXn0=
-----END CERTIFICATE-----
