Certificate:
    Data:
        Version: 3 (0x2)
        Serial Number:
            a9:ba:f4:4c:cf:ca:c8:9c
    Signature Algorithm: sha256WithRSAEncryption
        Issuer: C=SW, L=Stockholm, O=ACME, CN=OpenVPN-ACME-CA
        Validity
            Not Before: Mar  2 18:12:08 2016 GMT
            Not After : Mar  3 18:12:08 2016 GMT
        Subject: C=SW, L=Stockholm, O=ACME, CN=pepe.acme.sw
        Subject Public Key Info:
            Public Key Algorithm: rsaEncryption
                Public-Key: (2048 bit)
                Modulus:
                    00:b5:a0:28:86:d3:61:83:b3:9f:c3:75:90:b4:ae:
                    23:51:7e:a7:3f:83:55:24:31:8f:9e:80:32:3e:d0:
                    e3:28:76:c6:9e:63:83:0e:ae:bb:22:35:52:1d:11:
                    84:c3:43:bb:de:c2:91:73:6a:6d:c0:c4:68:f8:9b:
                    8b:fe:64:b7:0e:50:aa:31:e8:42:5c:cd:f8:88:9c:
                    1f:d2:62:b7:7e:e9:48:0b:c1:99:bf:82:a0:c8:42:
                    d0:bc:d9:88:4f:2c:a6:bd:20:09:e7:a2:42:48:a4:
                    e7:21:04:ac:60:ef:c5:8c:ae:31:55:f1:b3:7b:5b:
                    ca:c3:d2:fa:c8:5e:d7:fa:16:7e:83:e1:9d:61:23:
                    3b:fa:ae:64:27:a5:7d:c0:92:a6:e5:41:b2:cc:a3:
                    ae:a5:cd:e6:d7:56:2d:30:8c:75:bc:9c:c7:f3:5f:
                    65:4e:6e:68:5a:3d:89:2a:1d:5c:0f:3d:bd:a6:5e:
                    01:1d:e9:fe:ac:55:2e:9b:74:7a:75:98:90:11:77:
                    00:d9:8b:0a:e9:1e:34:fa:a3:1c:10:e6:6e:40:42:
                    0c:ee:51:58:88:43:cc:a4:7b:f8:02:bb:8a:6a:ab:
                    3c:e2:de:c9:39:7d:34:ed:27:a7:77:f1:14:f0:86:
                    2e:49:b3:e6:31:50:59:c2:06:f7:f0:65:90:7a:f5:
                    14:7d
                Exponent: 65537 (0x10001)
        X509v3 extensions:
            X509v3 Basic Constraints: 
                CA:FALSE
            Netscape Cert Type: 
                SSL Client
            X509v3 Key Usage: 
                Digital Signature
            X509v3 Extended Key Usage: 
                TLS Web Client Authentication
            X509v3 Subject Key Identifier: 
                B7:FB:5E:A4:6F:E5:3A:B7:61:30:F7:E0:88:E3:A3:09:40:96:0B:69
            X509v3 Authority Key Identifier: 
                keyid:62:1E:04:9A:97:BD:40:30:BF:C6:24:BD:9D:5C:9C:FB:EF:21:CB:E2

            X509v3 Subject Alternative Name: 
                email:hostmaster@acme.sw
    Signature Algorithm: sha256WithRSAEncryption
         02:26:43:6c:9f:a8:f7:98:99:74:60:20:9c:1c:19:2c:d2:e7:
         5e:03:34:32:98:c9:0d:a7:cb:e7:fa:21:a3:85:62:45:6f:d5:
         1c:c7:28:80:99:d4:bf:f3:14:ec:18:8e:3b:ca:51:7e:24:29:
         59:92:5c:f1:50:35:94:2a:ec:06:cb:bf:c3:3c:20:98:b7:cb:
         3d:c3:35:0a:c9:08:03:86:2f:eb:2f:ea:6a:12:c7:e9:87:af:
         7f:0a:52:4e:9e:dc:50:b6:96:f4:db:3e:06:6b:66:85:eb:0d:
         14:b3:73:7a:ad:95:71:b4:08:57:bb:cd:7f:e7:2f:19:20:f9:
         da:3c:21:0a:27:fc:eb:e9:97:84:e9:a7:1f:a5:02:0f:73:c1:
         ce:b8:c5:82:ab:da:3b:97:bb:89:3f:00:7f:3b:07:c6:76:06:
         c7:53:a3:6d:b9:36:ef:c6:1f:12:ab:58:66:b3:9c:2a:66:fe:
         8f:d7:df:65:a2:a8:10:1a:92:7f:cd:90:9e:b8:33:94:46:c2:
         72:fc:67:a2:3f:b1:a6:52:a7:75:be:62:75:e7:d3:49:e4:ac:
         48:7c:52:c9:0a:21:f6:4c:39:a5:65:08:c6:d4:b6:5b:a3:3d:
         af:8c:57:b8:d1:d3:2c:22:e8:db:a0:e0:1c:9f:7e:a8:b9:d2:
         76:e0:a8:c8
-----BEGIN CERTIFICATE-----
MIIDtzCCAp+gAwIBAgIJAKm69EzPysicMA0GCSqGSIb3DQEBCwUAMEoxCzAJBgNV
BAYTAlNXMRIwEAYDVQQHDAlTdG9ja2hvbG0xDTALBgNVBAoMBEFDTUUxGDAWBgNV
BAMMD09wZW5WUE4tQUNNRS1DQTAeFw0xNjAzMDIxODEyMDhaFw0xNjAzMDMxODEy
MDhaMEcxCzAJBgNVBAYTAlNXMRIwEAYDVQQHDAlTdG9ja2hvbG0xDTALBgNVBAoM
BEFDTUUxFTATBgNVBAMMDHBlcGUuYWNtZS5zdzCCASIwDQYJKoZIhvcNAQEBBQAD
ggEPADCCAQoCggEBALWgKIbTYYOzn8N1kLSuI1F+pz+DVSQxj56AMj7Q4yh2xp5j
gw6uuyI1Uh0RhMNDu97CkXNqbcDEaPibi/5ktw5QqjHoQlzN+IicH9Jit37pSAvB
mb+CoMhC0LzZiE8spr0gCeeiQkik5yEErGDvxYyuMVXxs3tbysPS+she1/oWfoPh
nWEjO/quZCelfcCSpuVBssyjrqXN5tdWLTCMdbycx/NfZU5uaFo9iSodXA89vaZe
AR3p/qxVLpt0enWYkBF3ANmLCukeNPqjHBDmbkBCDO5RWIhDzKR7+AK7imqrPOLe
yTl9NO0np3fxFPCGLkmz5jFQWcIG9/BlkHr1FH0CAwEAAaOBojCBnzAJBgNVHRME
AjAAMBEGCWCGSAGG+EIBAQQEAwIHgDALBgNVHQ8EBAMCB4AwEwYDVR0lBAwwCgYI
KwYBBQUHAwIwHQYDVR0OBBYEFLf7XqRv5Tq3YTD34IjjowlAlgtpMB8GA1UdIwQY
MBaAFGIeBJqXvUAwv8YkvZ1cnPvvIcviMB0GA1UdEQQWMBSBEmhvc3RtYXN0ZXJA
YWNtZS5zdzANBgkqhkiG9w0BAQsFAAOCAQEAAiZDbJ+o95iZdGAgnBwZLNLnXgM0
MpjJDafL5/oho4ViRW/VHMcogJnUv/MU7BiOO8pRfiQpWZJc8VA1lCrsBsu/wzwg
mLfLPcM1CskIA4Yv6y/qahLH6YevfwpSTp7cULaW9Ns+BmtmhesNFLNzeq2VcbQI
V7vNf+cvGSD52jwhCif86+mXhOmnH6UCD3PBzrjFgqvaO5e7iT8AfzsHxnYGx1Oj
bbk278YfEqtYZrOcKmb+j9ffZaKoEBqSf82QnrgzlEbCcvxnoj+xplKndb5idefT
SeSsSHxSyQoh9kw5pWUIxtS2W6M9r4xXuNHTLCLo26DgHJ9+qLnSduCoyA==
-----END CERTIFICATE-----
