Certificate:
    Data:
        Version: 3 (0x2)
        Serial Number:
            a9:ba:f4:4c:cf:ca:c8:b6
    Signature Algorithm: sha256WithRSAEncryption
        Issuer: C=SW, L=Stockholm, O=ACME, CN=OpenVPN-ACME-CA
        Validity
            Not Before: Mar  3 12:59:32 2016 GMT
            Not After : Mar  4 12:59:32 2016 GMT
        Subject: C=SW, L=Stockholm, O=ACME, CN=temporal_certificate.acme.sw
        Subject Public Key Info:
            Public Key Algorithm: rsaEncryption
                Public-Key: (2048 bit)
                Modulus:
                    00:ad:a6:e3:0c:bc:16:fb:6d:82:61:b9:01:33:b9:
                    dc:0f:c6:9c:fa:88:f6:8a:0c:1c:30:0a:d4:ee:4f:
                    bb:0a:70:5b:40:36:4a:d7:75:b3:81:42:0f:ab:8e:
                    0c:ff:fe:59:1e:5e:a9:b7:c9:7d:8c:28:42:cf:22:
                    10:2b:a3:3e:80:09:e1:90:f6:03:f6:23:40:90:27:
                    61:68:87:d0:f4:5e:5e:91:3b:92:9e:af:68:b4:0e:
                    5f:94:1e:bf:f2:f1:4a:3b:12:ff:b8:b2:4a:f1:f2:
                    43:d4:16:c6:2d:e2:89:50:27:78:1a:27:ec:46:26:
                    44:3c:63:70:56:fe:24:7c:cc:5e:3f:0d:be:cd:63:
                    8e:46:9f:eb:8f:75:6a:39:da:c3:dd:c8:04:40:82:
                    b3:e6:d6:59:36:f5:36:3b:89:2a:2c:b4:86:77:aa:
                    1a:d4:0e:47:d9:3c:1a:18:23:5b:c9:2b:e6:06:34:
                    24:12:f5:51:e7:c6:5f:74:f6:05:f0:cf:50:01:20:
                    27:68:e3:82:90:3e:ce:2f:ef:4c:b1:9d:94:0b:35:
                    70:dd:86:48:58:8c:16:39:4c:94:92:87:43:98:cf:
                    2b:80:6f:2c:cc:7a:93:98:db:33:9d:d4:41:45:d6:
                    eb:41:3c:24:ef:38:2e:d3:fe:57:83:8f:85:a6:27:
                    71:61
                Exponent: 65537 (0x10001)
        X509v3 extensions:
            X509v3 Basic Constraints: 
                CA:FALSE
            Netscape Cert Type: 
                SSL Client
            X509v3 Key Usage: 
                Digital Signature
            X509v3 Extended Key Usage: 
                TLS Web Client Authentication
            X509v3 Subject Key Identifier: 
                ED:62:59:2C:6D:A1:EE:AD:30:D2:A6:00:1B:90:0E:3F:89:3D:90:8B
            X509v3 Authority Key Identifier: 
                keyid:62:1E:04:9A:97:BD:40:30:BF:C6:24:BD:9D:5C:9C:FB:EF:21:CB:E2

            X509v3 Subject Alternative Name: 
                email:hostmaster@acme.sw
    Signature Algorithm: sha256WithRSAEncryption
         69:a8:31:4f:cd:18:a9:9f:19:33:cf:a4:1a:19:7b:9b:7f:d6:
         e2:98:f1:20:23:70:0d:e6:dc:3c:32:d7:49:90:6e:b5:02:a5:
         29:7e:13:42:76:f0:e3:25:02:25:82:ce:19:eb:4c:db:b7:fb:
         6e:02:7f:b2:52:02:c4:2e:4d:55:03:31:0f:c5:61:f1:e5:91:
         4a:82:b6:da:dd:4c:61:89:8d:ac:0a:e3:e9:37:a8:e0:ec:a2:
         2c:91:74:81:7e:9d:14:21:77:3b:a5:1f:22:3f:fb:ce:19:93:
         fd:4a:eb:73:75:ef:8d:32:87:38:b0:08:42:c0:6c:e8:00:c4:
         ed:99:d3:23:5f:2f:0e:80:bc:1e:5e:d8:58:a6:7e:fc:06:da:
         b2:71:48:f4:71:d2:24:cb:62:6b:c1:3c:d1:f0:ee:d8:6e:c2:
         c4:10:81:57:7f:61:4c:43:54:99:e0:37:05:3a:cb:83:f7:79:
         8a:54:12:3a:cd:54:dc:f7:91:24:be:74:94:ea:16:35:c8:99:
         f0:0c:e5:56:d6:cf:56:b9:a6:61:ff:16:fc:63:1b:b6:e3:63:
         15:3d:00:5d:91:e4:fc:f3:a9:a6:92:68:2e:a9:c0:3d:d1:db:
         f4:99:07:ee:2f:9d:84:a9:76:03:17:6f:21:de:52:8e:b5:7d:
         79:8b:0b:fd
-----BEGIN CERTIFICATE-----
MIIDxzCCAq+gAwIBAgIJAKm69EzPysi2MA0GCSqGSIb3DQEBCwUAMEoxCzAJBgNV
BAYTAlNXMRIwEAYDVQQHDAlTdG9ja2hvbG0xDTALBgNVBAoMBEFDTUUxGDAWBgNV
BAMMD09wZW5WUE4tQUNNRS1DQTAeFw0xNjAzMDMxMjU5MzJaFw0xNjAzMDQxMjU5
MzJaMFcxCzAJBgNVBAYTAlNXMRIwEAYDVQQHDAlTdG9ja2hvbG0xDTALBgNVBAoM
BEFDTUUxJTAjBgNVBAMMHHRlbXBvcmFsX2NlcnRpZmljYXRlLmFjbWUuc3cwggEi
MA0GCSqGSIb3DQEBAQUAA4IBDwAwggEKAoIBAQCtpuMMvBb7bYJhuQEzudwPxpz6
iPaKDBwwCtTuT7sKcFtANkrXdbOBQg+rjgz//lkeXqm3yX2MKELPIhAroz6ACeGQ
9gP2I0CQJ2Foh9D0Xl6RO5Ker2i0Dl+UHr/y8Uo7Ev+4skrx8kPUFsYt4olQJ3ga
J+xGJkQ8Y3BW/iR8zF4/Db7NY45Gn+uPdWo52sPdyARAgrPm1lk29TY7iSostIZ3
qhrUDkfZPBoYI1vJK+YGNCQS9VHnxl909gXwz1ABICdo44KQPs4v70yxnZQLNXDd
hkhYjBY5TJSSh0OYzyuAbyzMepOY2zOd1EFF1utBPCTvOC7T/leDj4WmJ3FhAgMB
AAGjgaIwgZ8wCQYDVR0TBAIwADARBglghkgBhvhCAQEEBAMCB4AwCwYDVR0PBAQD
AgeAMBMGA1UdJQQMMAoGCCsGAQUFBwMCMB0GA1UdDgQWBBTtYlksbaHurTDSpgAb
kA4/iT2QizAfBgNVHSMEGDAWgBRiHgSal71AML/GJL2dXJz77yHL4jAdBgNVHREE
FjAUgRJob3N0bWFzdGVyQGFjbWUuc3cwDQYJKoZIhvcNAQELBQADggEBAGmoMU/N
GKmfGTPPpBoZe5t/1uKY8SAjcA3m3Dwy10mQbrUCpSl+E0J28OMlAiWCzhnrTNu3
+24Cf7JSAsQuTVUDMQ/FYfHlkUqCttrdTGGJjawK4+k3qODsoiyRdIF+nRQhdzul
HyI/+84Zk/1K63N1740yhziwCELAbOgAxO2Z0yNfLw6AvB5e2FimfvwG2rJxSPRx
0iTLYmvBPNHw7thuwsQQgVd/YUxDVJngNwU6y4P3eYpUEjrNVNz3kSS+dJTqFjXI
mfAM5VbWz1a5pmH/FvxjG7bjYxU9AF2R5PzzqaaSaC6pwD3R2/SZB+4vnYSpdgMX
byHeUo61fXmLC/0=
-----END CERTIFICATE-----
