Certificate:
    Data:
        Version: 3 (0x2)
        Serial Number:
            a9:ba:f4:4c:cf:ca:c8:d2
    Signature Algorithm: sha256WithRSAEncryption
        Issuer: C=SW, L=Stockholm, O=ACME, CN=OpenVPN-ACME-CA
        Validity
            Not Before: Mar  3 13:22:39 2016 GMT
            Not After : Mar  4 13:22:39 2016 GMT
        Subject: C=SW, L=Stockholm, O=ACME, CN=temporal_certificate.acme.sw
        Subject Public Key Info:
            Public Key Algorithm: rsaEncryption
                Public-Key: (2048 bit)
                Modulus:
                    00:bb:83:57:3f:61:30:fc:31:64:6a:53:29:b3:ff:
                    ae:3c:ef:0e:ff:35:52:cc:1f:3b:9e:07:44:ed:61:
                    4e:c4:7a:4d:db:72:87:9f:38:c7:33:c8:c2:69:5b:
                    c8:d2:6a:a8:04:88:57:a4:67:36:6a:43:e0:05:25:
                    a8:33:01:3b:c2:47:65:62:5e:b4:28:9d:34:c0:32:
                    9a:2d:2d:e8:fb:22:96:e8:a6:04:99:c6:88:59:89:
                    64:49:fe:0f:d8:3d:b5:bd:33:a7:fb:eb:c6:4d:2b:
                    01:5f:1e:6d:3b:65:fb:c6:b4:5f:c3:c9:12:4d:3c:
                    85:81:1a:65:be:43:5c:84:20:b6:0c:d5:b2:d4:d7:
                    6f:64:25:1b:dd:63:44:c0:5f:6f:5c:b4:32:98:18:
                    76:63:24:c6:2f:7e:64:64:46:2c:12:7e:80:66:b6:
                    90:c3:a5:9c:aa:34:a0:c4:35:f0:f9:ca:0b:e5:4b:
                    8b:6e:cb:64:2b:eb:38:57:99:2e:84:75:e8:8b:a2:
                    cc:7f:3b:13:90:61:8d:8d:5b:29:e7:a7:fd:b9:9c:
                    c6:97:03:5d:4e:4a:a1:02:44:6b:9c:e4:37:1d:19:
                    8d:b8:11:08:f6:d6:2d:a3:fe:f2:93:f2:2d:3c:d0:
                    4b:e7:e0:4e:6a:90:46:13:ad:1a:f4:b1:8b:66:d8:
                    d8:dd
                Exponent: 65537 (0x10001)
        X509v3 extensions:
            X509v3 Basic Constraints: 
                CA:FALSE
            Netscape Cert Type: 
                SSL Client
            X509v3 Key Usage: 
                Digital Signature
            X509v3 Extended Key Usage: 
                TLS Web Client Authentication
            X509v3 Subject Key Identifier: 
                08:CC:64:B0:51:F4:EB:7D:2B:94:1C:61:3F:A9:CB:AA:FF:40:EB:C1
            X509v3 Authority Key Identifier: 
                keyid:62:1E:04:9A:97:BD:40:30:BF:C6:24:BD:9D:5C:9C:FB:EF:21:CB:E2

            X509v3 Subject Alternative Name: 
                email:hostmaster@acme.sw
    Signature Algorithm: sha256WithRSAEncryption
         96:88:5c:7e:b4:b6:68:27:ed:5f:20:45:df:8d:5c:f3:0b:19:
         6d:43:1a:d3:2f:75:c3:f5:16:48:9a:c9:5a:e1:87:fd:2e:e6:
         e4:b9:19:b4:18:46:3f:04:a5:46:3f:8c:a5:b3:30:ca:8c:db:
         a8:4a:d8:b2:d4:32:95:ea:44:23:5d:83:a3:1d:09:14:0d:33:
         d4:8e:47:88:d9:08:71:99:75:89:f5:15:aa:a0:43:a1:45:18:
         a8:e0:6e:80:9d:67:ac:9e:0b:23:30:b8:5f:67:55:86:0b:c7:
         1b:00:b5:0a:63:5c:ae:60:97:66:d7:08:39:d7:56:fb:a3:a4:
         92:79:af:fd:85:c6:fc:d0:7c:88:0c:a0:5c:49:50:b6:e5:62:
         d9:88:82:16:9a:39:00:4d:c9:be:62:3a:a1:c8:8d:a9:26:c9:
         64:3e:56:bf:d7:bc:44:f3:c2:78:9e:f0:f2:f1:67:a3:bc:b2:
         09:85:34:50:65:9c:7c:7f:79:ca:5b:d2:8c:4c:1c:67:6f:9d:
         a6:60:f3:88:56:3e:6d:c8:df:cd:2f:67:50:77:17:55:3d:16:
         f1:f1:76:32:be:4a:6b:2b:95:84:d4:c6:41:63:a6:da:3d:3e:
         94:3e:be:17:b9:b8:e8:d1:09:be:ea:a4:92:49:30:e4:9b:da:
         4a:dd:fe:41
-----BEGIN CERTIFICATE-----
MIIDxzCCAq+gAwIBAgIJAKm69EzPysjSMA0GCSqGSIb3DQEBCwUAMEoxCzAJBgNV
BAYTAlNXMRIwEAYDVQQHDAlTdG9ja2hvbG0xDTALBgNVBAoMBEFDTUUxGDAWBgNV
BAMMD09wZW5WUE4tQUNNRS1DQTAeFw0xNjAzMDMxMzIyMzlaFw0xNjAzMDQxMzIy
MzlaMFcxCzAJBgNVBAYTAlNXMRIwEAYDVQQHDAlTdG9ja2hvbG0xDTALBgNVBAoM
BEFDTUUxJTAjBgNVBAMMHHRlbXBvcmFsX2NlcnRpZmljYXRlLmFjbWUuc3cwggEi
MA0GCSqGSIb3DQEBAQUAA4IBDwAwggEKAoIBAQC7g1c/YTD8MWRqUymz/6487w7/
NVLMHzueB0TtYU7Eek3bcoefOMczyMJpW8jSaqgEiFekZzZqQ+AFJagzATvCR2Vi
XrQonTTAMpotLej7IpbopgSZxohZiWRJ/g/YPbW9M6f768ZNKwFfHm07ZfvGtF/D
yRJNPIWBGmW+Q1yEILYM1bLU129kJRvdY0TAX29ctDKYGHZjJMYvfmRkRiwSfoBm
tpDDpZyqNKDENfD5ygvlS4tuy2Qr6zhXmS6EdeiLosx/OxOQYY2NWynnp/25nMaX
A11OSqECRGuc5DcdGY24EQj21i2j/vKT8i080Evn4E5qkEYTrRr0sYtm2NjdAgMB
AAGjgaIwgZ8wCQYDVR0TBAIwADARBglghkgBhvhCAQEEBAMCB4AwCwYDVR0PBAQD
AgeAMBMGA1UdJQQMMAoGCCsGAQUFBwMCMB0GA1UdDgQWBBQIzGSwUfTrfSuUHGE/
qcuq/0DrwTAfBgNVHSMEGDAWgBRiHgSal71AML/GJL2dXJz77yHL4jAdBgNVHREE
FjAUgRJob3N0bWFzdGVyQGFjbWUuc3cwDQYJKoZIhvcNAQELBQADggEBAJaIXH60
tmgn7V8gRd+NXPMLGW1DGtMvdcP1FkiayVrhh/0u5uS5GbQYRj8EpUY/jKWzMMqM
26hK2LLUMpXqRCNdg6MdCRQNM9SOR4jZCHGZdYn1FaqgQ6FFGKjgboCdZ6yeCyMw
uF9nVYYLxxsAtQpjXK5gl2bXCDnXVvujpJJ5r/2FxvzQfIgMoFxJULblYtmIghaa
OQBNyb5iOqHIjakmyWQ+Vr/XvETzwnie8PLxZ6O8sgmFNFBlnHx/ecpb0oxMHGdv
naZg84hWPm3I380vZ1B3F1U9FvHxdjK+SmsrlYTUxkFjpto9PpQ+vhe5uOjRCb7q
pJJJMOSb2krd/kE=
-----END CERTIFICATE-----
