Certificate:
    Data:
        Version: 3 (0x2)
        Serial Number:
            a9:ba:f4:4c:cf:ca:c8:9e
    Signature Algorithm: sha256WithRSAEncryption
        Issuer: C=SW, L=Stockholm, O=ACME, CN=OpenVPN-ACME-CA
        Validity
            Not Before: Mar  2 18:17:23 2016 GMT
            Not After : Mar  3 18:17:23 2016 GMT
        Subject: C=SW, L=Stockholm, O=ACME, CN=temp.acme.sw
        Subject Public Key Info:
            Public Key Algorithm: rsaEncryption
                Public-Key: (2048 bit)
                Modulus:
                    00:d9:a2:a5:47:a2:40:e0:10:6d:25:ef:1d:78:bd:
                    08:08:45:c2:3d:ac:94:65:d5:31:a8:d0:e9:3f:80:
                    c5:6c:48:14:e4:52:f4:da:10:e5:41:ee:0a:cd:ae:
                    bf:18:d3:0f:6e:67:d4:02:69:35:04:c4:c7:b0:a8:
                    6b:04:f5:ec:27:fb:eb:67:43:bc:29:a0:12:ae:e6:
                    35:16:f9:0c:36:ab:b6:95:72:f1:72:ab:c8:f0:f7:
                    12:4d:ec:6a:27:2b:8d:d0:ef:ff:6c:21:72:de:d5:
                    30:55:93:0d:f4:26:f1:68:d1:68:84:81:3e:9e:54:
                    ad:28:25:a1:10:5a:23:b7:0f:78:6e:c5:fe:cf:3b:
                    a6:dc:ca:fa:df:52:c9:0d:62:18:a3:52:42:62:48:
                    0b:c9:f3:85:4f:de:99:18:b7:39:bf:82:1c:d8:83:
                    a2:14:d4:fd:85:4a:7a:78:f4:b2:da:4e:9c:92:c8:
                    a4:13:c3:a2:f3:24:23:b2:d9:02:11:bb:9d:9b:0f:
                    a9:cf:0a:f6:16:2f:94:81:d5:72:37:3f:dc:6c:e3:
                    7d:4f:3c:f0:4e:a3:a4:fc:36:0c:2f:38:32:c6:a3:
                    d7:eb:94:b0:0b:3e:fb:26:2e:75:89:00:80:ae:d8:
                    30:a7:ac:7b:87:a1:d1:c0:f5:56:8a:fb:28:19:86:
                    52:ed
                Exponent: 65537 (0x10001)
        X509v3 extensions:
            X509v3 Basic Constraints: 
                CA:FALSE
            Netscape Cert Type: 
                SSL Client
            X509v3 Key Usage: 
                Digital Signature
            X509v3 Extended Key Usage: 
                TLS Web Client Authentication
            X509v3 Subject Key Identifier: 
                E2:96:23:50:02:40:C2:B4:EC:4B:8D:75:73:ED:56:1B:D3:9C:97:B0
            X509v3 Authority Key Identifier: 
                keyid:62:1E:04:9A:97:BD:40:30:BF:C6:24:BD:9D:5C:9C:FB:EF:21:CB:E2

            X509v3 Subject Alternative Name: 
                email:hostmaster@acme.sw
    Signature Algorithm: sha256WithRSAEncryption
         06:fc:a6:3b:5f:c4:bd:d0:98:1c:5d:ff:b0:d0:5a:e9:eb:e0:
         f0:48:a8:6f:de:76:b5:76:00:68:90:ff:88:87:d8:1b:53:8d:
         78:48:54:d5:00:42:b6:8f:b0:d3:4f:c7:fc:f9:61:7e:df:5d:
         21:ad:e5:b0:28:a7:51:59:d9:c7:8c:b8:c8:d5:4f:a4:46:c2:
         df:84:3b:a4:00:02:8a:dc:ed:9d:df:bb:1d:68:96:42:5b:1f:
         d2:1a:89:12:b5:3e:e8:f6:c3:3b:22:ff:0b:23:9c:39:cb:7b:
         90:89:42:2c:e1:4b:4d:8a:54:36:98:1f:64:a6:24:57:6f:56:
         b6:9c:53:82:f8:af:45:d4:23:03:70:30:b6:a7:b7:c0:01:bc:
         d4:b0:bb:f3:e1:2b:5b:15:8c:64:c2:8a:dd:c0:85:9e:d9:8c:
         13:89:69:02:00:39:28:06:fd:2e:ee:fe:0a:b8:4f:ac:d6:59:
         0a:db:5c:12:98:2b:91:1d:b8:85:ce:5a:90:60:2f:44:36:d9:
         88:ab:f0:b5:22:b1:c6:cd:2f:a4:08:2b:44:8a:5c:d9:36:ec:
         a8:6b:25:7a:66:c2:29:b3:1c:9c:9e:76:8f:2a:52:b7:85:a7:
         b5:fa:de:77:c4:f4:72:53:37:aa:c0:79:d0:b9:00:ab:05:20:
         ce:b7:af:ef
-----BEGIN CERTIFICATE-----
MIIDtzCCAp+gAwIBAgIJAKm69EzPysieMA0GCSqGSIb3DQEBCwUAMEoxCzAJBgNV
BAYTAlNXMRIwEAYDVQQHDAlTdG9ja2hvbG0xDTALBgNVBAoMBEFDTUUxGDAWBgNV
BAMMD09wZW5WUE4tQUNNRS1DQTAeFw0xNjAzMDIxODE3MjNaFw0xNjAzMDMxODE3
MjNaMEcxCzAJBgNVBAYTAlNXMRIwEAYDVQQHDAlTdG9ja2hvbG0xDTALBgNVBAoM
BEFDTUUxFTATBgNVBAMMDHRlbXAuYWNtZS5zdzCCASIwDQYJKoZIhvcNAQEBBQAD
ggEPADCCAQoCggEBANmipUeiQOAQbSXvHXi9CAhFwj2slGXVMajQ6T+AxWxIFORS
9NoQ5UHuCs2uvxjTD25n1AJpNQTEx7CoawT17Cf762dDvCmgEq7mNRb5DDartpVy
8XKryPD3Ek3saicrjdDv/2whct7VMFWTDfQm8WjRaISBPp5UrSgloRBaI7cPeG7F
/s87ptzK+t9SyQ1iGKNSQmJIC8nzhU/emRi3Ob+CHNiDohTU/YVKenj0stpOnJLI
pBPDovMkI7LZAhG7nZsPqc8K9hYvlIHVcjc/3GzjfU888E6jpPw2DC84Msaj1+uU
sAs++yYudYkAgK7YMKese4eh0cD1Vor7KBmGUu0CAwEAAaOBojCBnzAJBgNVHRME
AjAAMBEGCWCGSAGG+EIBAQQEAwIHgDALBgNVHQ8EBAMCB4AwEwYDVR0lBAwwCgYI
KwYBBQUHAwIwHQYDVR0OBBYEFOKWI1ACQMK07EuNdXPtVhvTnJewMB8GA1UdIwQY
MBaAFGIeBJqXvUAwv8YkvZ1cnPvvIcviMB0GA1UdEQQWMBSBEmhvc3RtYXN0ZXJA
YWNtZS5zdzANBgkqhkiG9w0BAQsFAAOCAQEABvymO1/EvdCYHF3/sNBa6evg8Eio
b952tXYAaJD/iIfYG1ONeEhU1QBCto+w00/H/Plhft9dIa3lsCinUVnZx4y4yNVP
pEbC34Q7pAACitztnd+7HWiWQlsf0hqJErU+6PbDOyL/CyOcOct7kIlCLOFLTYpU
NpgfZKYkV29WtpxTgvivRdQjA3Awtqe3wAG81LC78+ErWxWMZMKK3cCFntmME4lp
AgA5KAb9Lu7+CrhPrNZZCttcEpgrkR24hc5akGAvRDbZiKvwtSKxxs0vpAgrRIpc
2TbsqGslembCKbMcnJ52jypSt4Wntfred8T0clM3qsB50LkAqwUgzrev7w==
-----END CERTIFICATE-----
