Certificate:
    Data:
        Version: 3 (0x2)
        Serial Number:
            a9:ba:f4:4c:cf:ca:c8:aa
    Signature Algorithm: sha256WithRSAEncryption
        Issuer: C=SW, L=Stockholm, O=ACME, CN=OpenVPN-ACME-CA
        Validity
            Not Before: Mar  3 12:37:30 2016 GMT
            Not After : Mar  4 12:37:30 2016 GMT
        Subject: C=SW, L=Stockholm, O=ACME, CN=temp.acme.sw
        Subject Public Key Info:
            Public Key Algorithm: rsaEncryption
                Public-Key: (2048 bit)
                Modulus:
                    00:c7:1c:de:2a:5a:93:9b:5f:21:0c:63:92:39:0a:
                    4e:1a:2a:39:17:2d:14:37:97:87:7f:5d:25:54:d6:
                    c8:fb:20:db:3f:c3:9f:68:10:2f:1d:fd:73:6d:45:
                    4b:14:84:74:80:4a:11:dd:aa:86:b9:1e:ab:5e:ed:
                    bd:45:d3:99:55:9e:66:c1:f7:fc:f9:2d:77:76:c5:
                    39:1c:69:c4:eb:b3:98:52:25:93:97:f5:0d:a7:f0:
                    4b:23:c7:c7:29:e0:a6:a8:b2:e9:13:fd:5c:3c:57:
                    6c:08:b2:cb:b5:99:89:80:0f:46:ac:dd:8b:6e:23:
                    c2:66:6a:37:d7:c3:42:2a:58:af:14:b1:73:10:29:
                    08:e9:d9:f7:93:8e:53:9f:d4:eb:89:e9:5e:07:c8:
                    d6:4f:1a:ee:13:07:3c:e9:15:04:99:5f:82:df:ac:
                    7b:f3:d5:ed:f0:23:16:5a:8e:2f:1a:9b:de:1e:3f:
                    33:eb:17:8a:3b:4d:4f:97:6e:59:fb:fb:5a:e8:ae:
                    0b:18:5d:ee:8b:b0:98:f1:b2:a4:a9:e3:68:7e:0e:
                    9e:6d:db:f9:ea:a1:57:11:f8:e4:dd:3f:ee:6a:67:
                    5f:41:9a:3e:a4:57:77:66:e0:6a:75:56:7e:dd:18:
                    9e:c2:14:44:8b:71:6e:de:76:0f:05:dd:6c:42:2d:
                    e3:67
                Exponent: 65537 (0x10001)
        X509v3 extensions:
            X509v3 Basic Constraints: 
                CA:FALSE
            Netscape Cert Type: 
                SSL Client
            X509v3 Key Usage: 
                Digital Signature
            X509v3 Extended Key Usage: 
                TLS Web Client Authentication
            X509v3 Subject Key Identifier: 
                7E:64:45:D4:C8:40:9F:7B:A6:DD:81:D4:65:98:51:4F:EB:89:D9:69
            X509v3 Authority Key Identifier: 
                keyid:62:1E:04:9A:97:BD:40:30:BF:C6:24:BD:9D:5C:9C:FB:EF:21:CB:E2

            X509v3 Subject Alternative Name: 
                email:hostmaster@acme.sw
    Signature Algorithm: sha256WithRSAEncryption
         69:ad:92:e9:4d:3c:2b:3f:7d:6a:07:6e:d4:2e:25:10:e3:7a:
         d5:2b:a9:5b:7a:dd:cf:c0:72:ad:0e:82:c9:66:cf:7e:91:74:
         1b:22:c8:38:65:5d:23:80:e4:cb:3e:99:3d:a1:b4:04:b0:ee:
         0d:f2:56:38:77:f4:1f:c9:b5:4c:90:2d:c7:f2:0b:3c:91:aa:
         b6:06:26:a0:4b:e8:e9:43:1b:ad:a6:e5:97:1f:d9:64:88:58:
         8f:52:39:10:6a:7e:a2:c1:51:c7:7d:db:9b:be:a0:31:a2:eb:
         1d:3b:53:8e:28:fa:ab:f6:45:30:e2:9c:aa:ae:b3:e3:20:97:
         cc:47:79:50:69:29:1e:f4:fe:8b:75:bd:03:cf:b9:c4:9e:89:
         6b:8c:10:cf:97:12:29:b7:eb:15:f7:57:94:99:4d:d9:91:2e:
         41:74:08:e4:c1:27:c4:b2:cd:54:af:11:04:b6:03:77:22:70:
         7c:8e:fa:1d:ca:a6:8e:90:4c:c3:32:5f:a3:d9:04:55:7d:36:
         01:ee:af:b1:df:a4:68:4a:76:41:41:2d:75:07:02:72:f4:85:
         e4:d5:e5:56:a6:3a:24:88:09:1b:db:52:e3:0c:72:a7:b0:95:
         ae:54:ae:3d:8d:1c:03:88:33:c9:2f:60:6f:0f:5b:01:df:5f:
         88:a2:38:31
-----BEGIN CERTIFICATE-----
MIIDtzCCAp+gAwIBAgIJAKm69EzPysiqMA0GCSqGSIb3DQEBCwUAMEoxCzAJBgNV
BAYTAlNXMRIwEAYDVQQHDAlTdG9ja2hvbG0xDTALBgNVBAoMBEFDTUUxGDAWBgNV
BAMMD09wZW5WUE4tQUNNRS1DQTAeFw0xNjAzMDMxMjM3MzBaFw0xNjAzMDQxMjM3
MzBaMEcxCzAJBgNVBAYTAlNXMRIwEAYDVQQHDAlTdG9ja2hvbG0xDTALBgNVBAoM
BEFDTUUxFTATBgNVBAMMDHRlbXAuYWNtZS5zdzCCASIwDQYJKoZIhvcNAQEBBQAD
ggEPADCCAQoCggEBAMcc3ipak5tfIQxjkjkKThoqORctFDeXh39dJVTWyPsg2z/D
n2gQLx39c21FSxSEdIBKEd2qhrkeq17tvUXTmVWeZsH3/Pktd3bFORxpxOuzmFIl
k5f1DafwSyPHxyngpqiy6RP9XDxXbAiyy7WZiYAPRqzdi24jwmZqN9fDQipYrxSx
cxApCOnZ95OOU5/U64npXgfI1k8a7hMHPOkVBJlfgt+se/PV7fAjFlqOLxqb3h4/
M+sXijtNT5duWfv7WuiuCxhd7ouwmPGypKnjaH4Onm3b+eqhVxH45N0/7mpnX0Ga
PqRXd2bganVWft0YnsIURItxbt52DwXdbEIt42cCAwEAAaOBojCBnzAJBgNVHRME
AjAAMBEGCWCGSAGG+EIBAQQEAwIHgDALBgNVHQ8EBAMCB4AwEwYDVR0lBAwwCgYI
KwYBBQUHAwIwHQYDVR0OBBYEFH5kRdTIQJ97pt2B1GWYUU/ridlpMB8GA1UdIwQY
MBaAFGIeBJqXvUAwv8YkvZ1cnPvvIcviMB0GA1UdEQQWMBSBEmhvc3RtYXN0ZXJA
YWNtZS5zdzANBgkqhkiG9w0BAQsFAAOCAQEAaa2S6U08Kz99agdu1C4lEON61Sup
W3rdz8ByrQ6CyWbPfpF0GyLIOGVdI4Dkyz6ZPaG0BLDuDfJWOHf0H8m1TJAtx/IL
PJGqtgYmoEvo6UMbrabllx/ZZIhYj1I5EGp+osFRx33bm76gMaLrHTtTjij6q/ZF
MOKcqq6z4yCXzEd5UGkpHvT+i3W9A8+5xJ6Ja4wQz5cSKbfrFfdXlJlN2ZEuQXQI
5MEnxLLNVK8RBLYDdyJwfI76HcqmjpBMwzJfo9kEVX02Ae6vsd+kaEp2QUEtdQcC
cvSF5NXlVqY6JIgJG9tS4wxyp7CVrlSuPY0cA4gzyS9gbw9bAd9fiKI4MQ==
-----END CERTIFICATE-----
