Certificate:
    Data:
        Version: 3 (0x2)
        Serial Number:
            a9:ba:f4:4c:cf:ca:c8:ce
    Signature Algorithm: sha256WithRSAEncryption
        Issuer: C=SW, L=Stockholm, O=ACME, CN=OpenVPN-ACME-CA
        Validity
            Not Before: Mar  3 13:21:07 2016 GMT
            Not After : Mar  4 13:21:07 2016 GMT
        Subject: C=SW, L=Stockholm, O=ACME, CN=temporal_certificate.acme.sw
        Subject Public Key Info:
            Public Key Algorithm: rsaEncryption
                Public-Key: (2048 bit)
                Modulus:
                    00:a4:59:b0:7a:bb:01:eb:4b:a2:5d:f4:cc:86:70:
                    37:82:65:bd:7e:9d:86:75:db:4d:bc:0f:48:3e:18:
                    29:ed:59:46:d0:69:c6:f4:c1:66:13:37:4f:ac:44:
                    00:86:58:1c:0e:ba:96:f2:a7:a8:18:10:80:3f:5e:
                    5c:57:86:ef:5d:7f:01:03:da:89:ae:3a:80:ca:d8:
                    06:6b:6b:6b:11:59:bf:36:3c:e8:66:c9:00:05:37:
                    f7:7b:4e:c1:57:1e:cf:ad:c2:97:d9:47:81:cd:8c:
                    47:87:94:c0:4e:88:30:f7:10:50:55:76:5e:4a:fd:
                    5e:d7:f3:c6:0f:50:b4:30:4f:f2:56:dc:b8:7d:19:
                    3f:de:d5:2c:89:0f:7c:9c:a9:4a:5a:b3:70:45:3c:
                    83:39:d6:e2:28:b7:2d:b3:63:15:5f:cf:3b:70:e5:
                    0b:bf:a5:3f:19:bb:b5:fb:a9:6d:5d:4d:3f:12:a5:
                    00:9f:b6:7d:c8:d8:e9:bc:76:17:0e:d7:ff:ef:c9:
                    8d:34:f6:37:62:ac:ef:aa:e2:ef:7d:68:d3:60:e3:
                    98:01:8a:a9:0e:45:18:9d:bc:0c:e9:ae:40:8d:74:
                    df:3c:80:75:b5:9b:68:b5:5d:35:3a:29:ae:14:95:
                    cd:78:b3:bb:32:61:d7:4c:ca:c7:b1:6c:02:de:9d:
                    2c:d7
                Exponent: 65537 (0x10001)
        X509v3 extensions:
            X509v3 Basic Constraints: 
                CA:FALSE
            Netscape Cert Type: 
                SSL Client
            X509v3 Key Usage: 
                Digital Signature
            X509v3 Extended Key Usage: 
                TLS Web Client Authentication
            X509v3 Subject Key Identifier: 
                E6:10:19:9D:E0:FA:D3:D6:14:C4:77:C3:48:B2:04:BD:DE:28:A0:12
            X509v3 Authority Key Identifier: 
                keyid:62:1E:04:9A:97:BD:40:30:BF:C6:24:BD:9D:5C:9C:FB:EF:21:CB:E2

            X509v3 Subject Alternative Name: 
                email:hostmaster@acme.sw
    Signature Algorithm: sha256WithRSAEncryption
         87:71:95:54:cd:4a:c3:8a:24:41:91:de:9e:b2:f2:d6:e2:03:
         0d:ad:5f:de:38:f8:65:c0:4b:fd:06:3a:69:85:a5:6c:c4:c8:
         37:e3:0b:2e:d7:0e:7d:15:28:78:f0:5a:f1:6b:da:6b:8b:b3:
         1d:ef:02:b9:32:81:0d:7a:67:b1:58:20:90:00:27:f5:c3:32:
         ae:d4:73:73:6d:b2:5f:4c:e0:7d:86:ba:8e:56:41:41:fa:55:
         03:39:ce:a2:cd:d2:ca:dc:fd:09:ed:5c:e4:18:0f:9a:8b:f7:
         9a:af:65:41:76:d4:81:74:44:50:c8:34:f9:5a:4f:fc:84:08:
         57:e8:cd:50:7f:6f:ac:e5:42:d1:28:1d:9e:3f:7c:6f:3d:58:
         21:9a:fc:40:f7:8b:06:e7:97:49:04:3c:f1:27:b6:e5:51:56:
         61:16:49:03:26:84:9c:dd:20:3f:0e:f3:1d:ca:4e:2d:5d:51:
         fb:c1:c4:67:ea:0e:ef:72:4b:01:e6:30:2c:8e:70:3b:2c:37:
         28:4c:58:fa:64:70:0c:47:b0:7a:cd:e0:f7:93:7a:a3:ff:44:
         5d:e7:ce:28:15:b5:31:0b:97:32:ee:58:74:ff:83:39:b4:56:
         9e:53:44:bb:41:20:57:e1:04:01:77:0d:a5:5a:11:15:9a:4b:
         08:fe:35:13
-----BEGIN CERTIFICATE-----
MIIDxzCCAq+gAwIBAgIJAKm69EzPysjOMA0GCSqGSIb3DQEBCwUAMEoxCzAJBgNV
BAYTAlNXMRIwEAYDVQQHDAlTdG9ja2hvbG0xDTALBgNVBAoMBEFDTUUxGDAWBgNV
BAMMD09wZW5WUE4tQUNNRS1DQTAeFw0xNjAzMDMxMzIxMDdaFw0xNjAzMDQxMzIx
MDdaMFcxCzAJBgNVBAYTAlNXMRIwEAYDVQQHDAlTdG9ja2hvbG0xDTALBgNVBAoM
BEFDTUUxJTAjBgNVBAMMHHRlbXBvcmFsX2NlcnRpZmljYXRlLmFjbWUuc3cwggEi
MA0GCSqGSIb3DQEBAQUAA4IBDwAwggEKAoIBAQCkWbB6uwHrS6Jd9MyGcDeCZb1+
nYZ12028D0g+GCntWUbQacb0wWYTN0+sRACGWBwOupbyp6gYEIA/XlxXhu9dfwED
2omuOoDK2AZra2sRWb82POhmyQAFN/d7TsFXHs+twpfZR4HNjEeHlMBOiDD3EFBV
dl5K/V7X88YPULQwT/JW3Lh9GT/e1SyJD3ycqUpas3BFPIM51uIoty2zYxVfzztw
5Qu/pT8Zu7X7qW1dTT8SpQCftn3I2Om8dhcO1//vyY009jdirO+q4u99aNNg45gB
iqkORRidvAzprkCNdN88gHW1m2i1XTU6Ka4Ulc14s7syYddMysexbALenSzXAgMB
AAGjgaIwgZ8wCQYDVR0TBAIwADARBglghkgBhvhCAQEEBAMCB4AwCwYDVR0PBAQD
AgeAMBMGA1UdJQQMMAoGCCsGAQUFBwMCMB0GA1UdDgQWBBTmEBmd4PrT1hTEd8NI
sgS93iigEjAfBgNVHSMEGDAWgBRiHgSal71AML/GJL2dXJz77yHL4jAdBgNVHREE
FjAUgRJob3N0bWFzdGVyQGFjbWUuc3cwDQYJKoZIhvcNAQELBQADggEBAIdxlVTN
SsOKJEGR3p6y8tbiAw2tX944+GXAS/0GOmmFpWzEyDfjCy7XDn0VKHjwWvFr2muL
sx3vArkygQ16Z7FYIJAAJ/XDMq7Uc3Ntsl9M4H2Guo5WQUH6VQM5zqLN0src/Qnt
XOQYD5qL95qvZUF21IF0RFDINPlaT/yECFfozVB/b6zlQtEoHZ4/fG89WCGa/ED3
iwbnl0kEPPEntuVRVmEWSQMmhJzdID8O8x3KTi1dUfvBxGfqDu9ySwHmMCyOcDss
NyhMWPpkcAxHsHrN4PeTeqP/RF3nzigVtTELlzLuWHT/gzm0Vp5TRLtBIFfhBAF3
DaVaERWaSwj+NRM=
-----END CERTIFICATE-----
