Certificate:
    Data:
        Version: 3 (0x2)
        Serial Number:
            a9:ba:f4:4c:cf:ca:c8:da
    Signature Algorithm: sha256WithRSAEncryption
        Issuer: C=SW, L=Stockholm, O=ACME, CN=OpenVPN-ACME-CA
        Validity
            Not Before: Mar  7 12:55:11 2016 GMT
            Not After : Mar  8 12:55:11 2016 GMT
        Subject: C=SW, L=Stockholm, O=ACME, CN=temporal_certificate_1457355311.acme.sw
        Subject Public Key Info:
            Public Key Algorithm: rsaEncryption
                Public-Key: (2048 bit)
                Modulus:
                    00:bb:41:95:80:e5:ef:e7:7f:fc:54:17:dd:e1:15:
                    98:7a:29:d9:16:72:83:d3:23:30:d7:a3:ac:54:d2:
                    74:84:b6:13:af:cc:38:12:17:60:57:8e:b1:de:c9:
                    14:04:61:bd:3a:68:bc:32:9b:e7:07:da:9f:6a:4c:
                    f4:02:d2:a4:e1:8a:b2:5a:67:ea:39:a9:4a:c0:87:
                    64:9b:fe:11:2e:f3:2b:9c:84:4d:a7:f1:4a:ad:b7:
                    82:72:a7:c8:5a:12:48:1d:9d:e6:62:07:48:b4:dd:
                    e2:2c:4b:f5:29:12:02:12:8e:9b:2d:11:74:c4:d1:
                    96:d1:bf:fc:62:09:1c:3d:c2:5a:11:cb:84:1a:27:
                    a7:35:45:5f:af:a2:20:31:e0:29:40:cb:45:02:00:
                    3c:2e:de:2c:86:57:8a:7d:a3:f1:bb:f7:06:c1:61:
                    bc:12:9e:d3:b5:82:ac:d6:b4:a0:d0:9b:fc:21:29:
                    ea:49:22:86:aa:dc:78:f0:15:82:88:f9:0e:d9:26:
                    3e:72:ca:66:bb:c0:2c:3a:99:09:29:09:c7:69:63:
                    10:cf:3a:3a:b1:48:60:18:9c:5b:53:c9:ee:7c:f4:
                    df:1d:ac:ea:01:c4:38:bb:3b:08:5a:18:fe:4b:94:
                    1d:6f:6f:f9:b4:23:c4:f2:62:11:d8:9a:94:b0:f1:
                    d7:63
                Exponent: 65537 (0x10001)
        X509v3 extensions:
            X509v3 Basic Constraints: 
                CA:FALSE
            Netscape Cert Type: 
                SSL Client
            X509v3 Key Usage: 
                Digital Signature
            X509v3 Extended Key Usage: 
                TLS Web Client Authentication
            X509v3 Subject Key Identifier: 
                8F:AE:AB:A4:E7:A8:52:8E:0C:EB:E7:A1:04:9B:C2:4F:04:B6:A5:58
            X509v3 Authority Key Identifier: 
                keyid:62:1E:04:9A:97:BD:40:30:BF:C6:24:BD:9D:5C:9C:FB:EF:21:CB:E2

            X509v3 Subject Alternative Name: 
                email:hostmaster@acme.sw
    Signature Algorithm: sha256WithRSAEncryption
         a3:d2:31:41:92:da:c4:f5:c1:1c:31:1b:c9:67:44:cb:be:0b:
         58:d1:a2:a9:49:dc:4d:1c:0d:ec:ca:50:d1:5e:d4:ea:96:0a:
         85:be:8b:d8:dd:e8:dc:e0:cc:0f:64:9e:f8:b3:ee:f3:70:e1:
         25:01:23:2a:82:1d:23:fa:73:60:7b:f6:75:9c:d7:c5:2c:a1:
         e9:77:16:e7:d5:0f:da:cc:54:df:1e:88:3b:01:d5:6b:38:2b:
         a7:8b:95:ff:a6:08:a1:53:5e:30:15:06:6b:cc:e3:5a:bb:4f:
         03:62:ff:08:08:fb:c4:04:a5:c1:9d:8d:d7:4c:60:52:df:e5:
         2f:65:0e:4e:13:eb:de:24:b3:84:29:95:2a:22:9c:1d:8d:8a:
         61:62:92:62:99:ac:7d:0b:53:13:13:f3:92:5b:cc:30:e7:77:
         9e:40:b6:36:2f:17:b5:10:16:d2:13:b3:60:61:96:85:7f:79:
         72:9a:95:3b:a3:71:82:84:8f:9c:fe:cb:e1:7b:a5:f0:96:5a:
         5a:b3:16:7b:3a:8c:31:44:45:70:32:8c:99:62:3a:f5:ab:e6:
         50:4c:a3:55:d3:60:a8:c5:66:46:30:26:ae:ba:db:81:c3:c6:
         f9:7c:39:65:cd:df:b0:13:93:58:e9:19:f2:b7:96:76:cd:ff:
         8c:48:bb:90
-----BEGIN CERTIFICATE-----
MIID0jCCArqgAwIBAgIJAKm69EzPysjaMA0GCSqGSIb3DQEBCwUAMEoxCzAJBgNV
BAYTAlNXMRIwEAYDVQQHDAlTdG9ja2hvbG0xDTALBgNVBAoMBEFDTUUxGDAWBgNV
BAMMD09wZW5WUE4tQUNNRS1DQTAeFw0xNjAzMDcxMjU1MTFaFw0xNjAzMDgxMjU1
MTFaMGIxCzAJBgNVBAYTAlNXMRIwEAYDVQQHDAlTdG9ja2hvbG0xDTALBgNVBAoM
BEFDTUUxMDAuBgNVBAMMJ3RlbXBvcmFsX2NlcnRpZmljYXRlXzE0NTczNTUzMTEu
YWNtZS5zdzCCASIwDQYJKoZIhvcNAQEBBQADggEPADCCAQoCggEBALtBlYDl7+d/
/FQX3eEVmHop2RZyg9MjMNejrFTSdIS2E6/MOBIXYFeOsd7JFARhvTpovDKb5wfa
n2pM9ALSpOGKslpn6jmpSsCHZJv+ES7zK5yETafxSq23gnKnyFoSSB2d5mIHSLTd
4ixL9SkSAhKOmy0RdMTRltG//GIJHD3CWhHLhBonpzVFX6+iIDHgKUDLRQIAPC7e
LIZXin2j8bv3BsFhvBKe07WCrNa0oNCb/CEp6kkihqrcePAVgoj5DtkmPnLKZrvA
LDqZCSkJx2ljEM86OrFIYBicW1PJ7nz03x2s6gHEOLs7CFoY/kuUHW9v+bQjxPJi
EdialLDx12MCAwEAAaOBojCBnzAJBgNVHRMEAjAAMBEGCWCGSAGG+EIBAQQEAwIH
gDALBgNVHQ8EBAMCB4AwEwYDVR0lBAwwCgYIKwYBBQUHAwIwHQYDVR0OBBYEFI+u
q6TnqFKODOvnoQSbwk8EtqVYMB8GA1UdIwQYMBaAFGIeBJqXvUAwv8YkvZ1cnPvv
IcviMB0GA1UdEQQWMBSBEmhvc3RtYXN0ZXJAYWNtZS5zdzANBgkqhkiG9w0BAQsF
AAOCAQEAo9IxQZLaxPXBHDEbyWdEy74LWNGiqUncTRwN7MpQ0V7U6pYKhb6L2N3o
3ODMD2Se+LPu83DhJQEjKoIdI/pzYHv2dZzXxSyh6XcW59UP2sxU3x6IOwHVazgr
p4uV/6YIoVNeMBUGa8zjWrtPA2L/CAj7xASlwZ2N10xgUt/lL2UOThPr3iSzhCmV
KiKcHY2KYWKSYpmsfQtTExPzklvMMOd3nkC2Ni8XtRAW0hOzYGGWhX95cpqVO6Nx
goSPnP7L4Xul8JZaWrMWezqMMURFcDKMmWI69avmUEyjVdNgqMVmRjAmrrrbgcPG
+Xw5Zc3fsBOTWOkZ8reWds3/jEi7kA==
-----END CERTIFICATE-----
