Certificate:
    Data:
        Version: 3 (0x2)
        Serial Number:
            a9:ba:f4:4c:cf:ca:c8:cb
    Signature Algorithm: sha256WithRSAEncryption
        Issuer: C=SW, L=Stockholm, O=ACME, CN=OpenVPN-ACME-CA
        Validity
            Not Before: Mar  3 13:08:51 2016 GMT
            Not After : Mar  4 13:08:51 2016 GMT
        Subject: C=SW, L=Stockholm, O=ACME, CN=temporal_certificate.acme.sw
        Subject Public Key Info:
            Public Key Algorithm: rsaEncryption
                Public-Key: (2048 bit)
                Modulus:
                    00:e4:f3:68:1a:9b:7e:e6:d6:bd:43:55:d0:b2:70:
                    32:9b:9a:fc:27:4e:4f:0d:48:b5:d5:6f:58:b3:b7:
                    c7:ab:c7:60:61:66:a0:cd:74:72:8e:e3:ee:47:8c:
                    d8:1d:ef:57:4d:42:5b:aa:df:80:d2:90:a2:46:c7:
                    7d:96:8d:fc:3b:5e:3e:8f:b9:09:4d:44:d3:18:a3:
                    84:ed:78:81:44:85:28:cd:79:c4:c3:4a:9f:f8:7b:
                    af:02:de:50:36:7f:2c:ca:db:e0:df:64:36:f6:e8:
                    44:20:ec:58:1f:b6:27:46:33:5e:04:30:96:97:ce:
                    10:48:41:c7:2f:2b:0c:52:9a:ad:85:9a:2a:5b:d2:
                    3c:02:38:73:5d:f8:be:34:80:71:ad:f0:af:3d:53:
                    74:d9:de:60:a0:fe:6b:46:75:02:97:54:9a:27:9b:
                    6d:2f:da:9a:7f:78:e4:82:f4:d7:09:54:c5:5c:74:
                    13:0c:fa:81:da:1e:37:d3:16:9a:db:ac:bc:c5:bd:
                    56:07:75:5d:87:04:7e:e9:ce:3f:76:35:3b:3e:5a:
                    a5:a9:44:99:fd:ec:00:c1:14:91:f2:75:ab:c3:71:
                    57:2c:27:bb:68:90:22:f6:b5:25:9d:ba:ed:f8:87:
                    7b:1d:65:33:08:74:a4:d3:6b:b1:66:f8:c5:2c:34:
                    1f:29
                Exponent: 65537 (0x10001)
        X509v3 extensions:
            X509v3 Basic Constraints: 
                CA:FALSE
            Netscape Cert Type: 
                SSL Client
            X509v3 Key Usage: 
                Digital Signature
            X509v3 Extended Key Usage: 
                TLS Web Client Authentication
            X509v3 Subject Key Identifier: 
                37:95:7A:C3:C9:91:27:F9:8A:B8:34:B4:B8:64:18:B8:40:24:AF:DB
            X509v3 Authority Key Identifier: 
                keyid:62:1E:04:9A:97:BD:40:30:BF:C6:24:BD:9D:5C:9C:FB:EF:21:CB:E2

            X509v3 Subject Alternative Name: 
                email:hostmaster@acme.sw
    Signature Algorithm: sha256WithRSAEncryption
         56:1c:71:6a:b4:69:81:b4:e9:c8:a0:07:58:08:e1:05:2e:f2:
         b6:fe:e2:f9:3b:04:7a:e7:b6:52:ba:ee:14:0d:69:34:ff:a3:
         bc:8c:dc:14:3b:b3:e0:7e:d9:8c:32:2f:6b:91:47:6c:55:87:
         f8:c7:f9:a6:a2:bf:8c:ae:00:d6:b3:1e:ba:8d:54:09:18:17:
         87:d0:09:02:32:8d:10:94:82:14:ff:99:48:f4:c0:6c:80:57:
         c9:8d:82:81:f4:fa:74:b4:25:0e:2d:f7:30:ce:83:bb:ae:1d:
         93:d3:dd:9b:1b:c5:17:c5:9e:46:45:12:04:9c:b8:7c:f6:d5:
         70:70:90:b3:e2:21:a9:11:92:df:77:10:30:51:ea:52:9f:f5:
         76:21:0c:21:28:54:a8:cb:48:84:15:a0:2e:20:3d:13:c5:dd:
         50:01:49:31:a5:8a:c4:cf:7c:a0:83:75:a8:e4:cf:20:a4:d3:
         05:91:e5:6f:98:b8:11:2a:9d:ea:2d:42:bb:c3:d4:41:89:ab:
         24:9c:51:17:a2:60:74:ef:7a:b2:b5:7e:00:25:67:14:bb:6f:
         97:d7:80:a4:37:06:98:36:1d:d2:17:d8:a1:c8:5f:db:b7:39:
         3a:e9:72:0e:63:76:44:f5:90:64:84:f0:87:1e:6b:73:e2:7d:
         01:00:94:d5
-----BEGIN CERTIFICATE-----
MIIDxzCCAq+gAwIBAgIJAKm69EzPysjLMA0GCSqGSIb3DQEBCwUAMEoxCzAJBgNV
BAYTAlNXMRIwEAYDVQQHDAlTdG9ja2hvbG0xDTALBgNVBAoMBEFDTUUxGDAWBgNV
BAMMD09wZW5WUE4tQUNNRS1DQTAeFw0xNjAzMDMxMzA4NTFaFw0xNjAzMDQxMzA4
NTFaMFcxCzAJBgNVBAYTAlNXMRIwEAYDVQQHDAlTdG9ja2hvbG0xDTALBgNVBAoM
BEFDTUUxJTAjBgNVBAMMHHRlbXBvcmFsX2NlcnRpZmljYXRlLmFjbWUuc3cwggEi
MA0GCSqGSIb3DQEBAQUAA4IBDwAwggEKAoIBAQDk82gam37m1r1DVdCycDKbmvwn
Tk8NSLXVb1izt8erx2BhZqDNdHKO4+5HjNgd71dNQluq34DSkKJGx32Wjfw7Xj6P
uQlNRNMYo4TteIFEhSjNecTDSp/4e68C3lA2fyzK2+DfZDb26EQg7FgftidGM14E
MJaXzhBIQccvKwxSmq2Fmipb0jwCOHNd+L40gHGt8K89U3TZ3mCg/mtGdQKXVJon
m20v2pp/eOSC9NcJVMVcdBMM+oHaHjfTFprbrLzFvVYHdV2HBH7pzj92NTs+WqWp
RJn97ADBFJHydavDcVcsJ7tokCL2tSWduu34h3sdZTMIdKTTa7Fm+MUsNB8pAgMB
AAGjgaIwgZ8wCQYDVR0TBAIwADARBglghkgBhvhCAQEEBAMCB4AwCwYDVR0PBAQD
AgeAMBMGA1UdJQQMMAoGCCsGAQUFBwMCMB0GA1UdDgQWBBQ3lXrDyZEn+Yq4NLS4
ZBi4QCSv2zAfBgNVHSMEGDAWgBRiHgSal71AML/GJL2dXJz77yHL4jAdBgNVHREE
FjAUgRJob3N0bWFzdGVyQGFjbWUuc3cwDQYJKoZIhvcNAQELBQADggEBAFYccWq0
aYG06cigB1gI4QUu8rb+4vk7BHrntlK67hQNaTT/o7yM3BQ7s+B+2YwyL2uRR2xV
h/jH+aaiv4yuANazHrqNVAkYF4fQCQIyjRCUghT/mUj0wGyAV8mNgoH0+nS0JQ4t
9zDOg7uuHZPT3ZsbxRfFnkZFEgScuHz21XBwkLPiIakRkt93EDBR6lKf9XYhDCEo
VKjLSIQVoC4gPRPF3VABSTGlisTPfKCDdajkzyCk0wWR5W+YuBEqneotQrvD1EGJ
qyScUReiYHTverK1fgAlZxS7b5fXgKQ3Bpg2HdIX2KHIX9u3OTrpcg5jdkT1kGSE
8Icea3PifQEAlNU=
-----END CERTIFICATE-----
