Certificate:
    Data:
        Version: 3 (0x2)
        Serial Number:
            a9:ba:f4:4c:cf:ca:c8:a6
    Signature Algorithm: sha256WithRSAEncryption
        Issuer: C=SW, L=Stockholm, O=ACME, CN=OpenVPN-ACME-CA
        Validity
            Not Before: Mar  2 18:41:01 2016 GMT
            Not After : Mar  3 18:41:01 2016 GMT
        Subject: C=SW, L=Stockholm, O=ACME, CN=temp.acme.sw
        Subject Public Key Info:
            Public Key Algorithm: rsaEncryption
                Public-Key: (2048 bit)
                Modulus:
                    00:e8:c1:f3:c9:2c:66:61:4a:26:9d:a1:76:aa:ec:
                    50:31:39:7b:f0:63:3c:ce:0b:c3:65:71:9a:af:26:
                    d3:d0:0b:ed:1e:52:d9:de:1f:d3:3e:5b:8f:d8:f6:
                    8d:f7:88:db:01:fc:7c:9b:cf:09:8b:42:a3:30:59:
                    ba:62:6a:18:e4:54:d3:f7:97:e2:e2:83:fc:d9:4c:
                    74:2d:da:4e:56:e8:50:fb:1a:fd:8b:53:d3:41:49:
                    ba:15:0f:8d:b9:fb:f1:ca:a7:22:80:de:1a:18:b9:
                    54:d4:40:7f:90:ac:f4:e8:99:d1:a6:9b:42:c6:72:
                    e0:8a:64:65:e2:54:ee:78:2c:74:75:f5:bb:5c:b3:
                    c0:f9:d9:71:ed:5b:e2:1a:ef:3a:29:03:27:b5:90:
                    f1:a7:51:d6:9f:fe:61:87:e3:13:f8:9f:a3:ff:a4:
                    da:d2:05:a6:ac:04:22:14:f3:54:c5:40:22:1e:cf:
                    41:06:35:75:fd:55:70:41:f8:3d:16:7b:dd:4e:16:
                    59:31:6f:6c:c5:d5:2d:b0:e1:05:d7:29:f8:3e:16:
                    5e:bc:c3:62:f1:e1:48:fe:a2:0e:79:12:4a:9e:40:
                    03:7b:a2:9e:bb:49:9b:a4:51:bc:49:21:68:da:44:
                    87:bb:c0:90:34:0f:76:77:a4:7f:65:f0:f0:55:d0:
                    d7:63
                Exponent: 65537 (0x10001)
        X509v3 extensions:
            X509v3 Basic Constraints: 
                CA:FALSE
            Netscape Cert Type: 
                SSL Client
            X509v3 Key Usage: 
                Digital Signature
            X509v3 Extended Key Usage: 
                TLS Web Client Authentication
            X509v3 Subject Key Identifier: 
                84:6C:51:08:23:5A:A5:A3:DA:94:8F:6D:F4:78:A0:F3:62:B6:A7:B9
            X509v3 Authority Key Identifier: 
                keyid:62:1E:04:9A:97:BD:40:30:BF:C6:24:BD:9D:5C:9C:FB:EF:21:CB:E2

            X509v3 Subject Alternative Name: 
                email:hostmaster@acme.sw
    Signature Algorithm: sha256WithRSAEncryption
         33:c8:f0:27:54:43:c1:16:ad:f6:b6:4b:a8:da:cc:43:92:59:
         68:aa:92:92:25:cc:13:16:3d:7a:88:16:1b:c9:7a:80:34:f5:
         dc:95:54:94:b1:95:26:10:a7:28:51:ab:29:1e:6e:a9:63:6e:
         9f:9a:58:e7:05:29:2e:05:d2:25:fe:8b:58:b2:e6:5d:54:4e:
         a0:e3:4e:72:3e:d9:c4:a9:8b:d8:40:1c:e3:a1:79:fd:91:34:
         4a:50:15:dd:db:9b:e3:32:4b:e5:af:83:79:f3:0f:fa:81:e4:
         74:e2:79:89:1c:32:52:22:8c:b6:2d:4d:1b:4b:72:ab:4b:0c:
         24:03:2d:02:8d:34:dd:82:29:c7:52:61:48:e2:06:ca:83:56:
         1b:c5:ab:73:4b:68:f5:0c:b9:20:13:6e:60:aa:21:87:1f:fd:
         19:f7:3c:53:87:7c:98:3e:19:6d:9f:77:68:29:68:91:8e:14:
         51:43:42:3c:c7:4a:26:d1:70:d5:83:6e:47:d9:66:3a:0f:08:
         67:b8:63:28:03:92:6b:df:02:c2:6f:78:07:26:d0:13:23:f2:
         b2:6a:19:23:88:ac:5b:06:51:13:0e:91:0d:27:84:8b:be:e0:
         14:0a:83:9f:c6:ca:93:0b:71:e2:f9:8f:66:d5:97:e5:1f:30:
         0f:73:fe:4d
-----BEGIN CERTIFICATE-----
MIIDtzCCAp+gAwIBAgIJAKm69EzPysimMA0GCSqGSIb3DQEBCwUAMEoxCzAJBgNV
BAYTAlNXMRIwEAYDVQQHDAlTdG9ja2hvbG0xDTALBgNVBAoMBEFDTUUxGDAWBgNV
BAMMD09wZW5WUE4tQUNNRS1DQTAeFw0xNjAzMDIxODQxMDFaFw0xNjAzMDMxODQx
MDFaMEcxCzAJBgNVBAYTAlNXMRIwEAYDVQQHDAlTdG9ja2hvbG0xDTALBgNVBAoM
BEFDTUUxFTATBgNVBAMMDHRlbXAuYWNtZS5zdzCCASIwDQYJKoZIhvcNAQEBBQAD
ggEPADCCAQoCggEBAOjB88ksZmFKJp2hdqrsUDE5e/BjPM4Lw2Vxmq8m09AL7R5S
2d4f0z5bj9j2jfeI2wH8fJvPCYtCozBZumJqGORU0/eX4uKD/NlMdC3aTlboUPsa
/YtT00FJuhUPjbn78cqnIoDeGhi5VNRAf5Cs9OiZ0aabQsZy4IpkZeJU7ngsdHX1
u1yzwPnZce1b4hrvOikDJ7WQ8adR1p/+YYfjE/ifo/+k2tIFpqwEIhTzVMVAIh7P
QQY1df1VcEH4PRZ73U4WWTFvbMXVLbDhBdcp+D4WXrzDYvHhSP6iDnkSSp5AA3ui
nrtJm6RRvEkhaNpEh7vAkDQPdnekf2Xw8FXQ12MCAwEAAaOBojCBnzAJBgNVHRME
AjAAMBEGCWCGSAGG+EIBAQQEAwIHgDALBgNVHQ8EBAMCB4AwEwYDVR0lBAwwCgYI
KwYBBQUHAwIwHQYDVR0OBBYEFIRsUQgjWqWj2pSPbfR4oPNitqe5MB8GA1UdIwQY
MBaAFGIeBJqXvUAwv8YkvZ1cnPvvIcviMB0GA1UdEQQWMBSBEmhvc3RtYXN0ZXJA
YWNtZS5zdzANBgkqhkiG9w0BAQsFAAOCAQEAM8jwJ1RDwRat9rZLqNrMQ5JZaKqS
kiXMExY9eogWG8l6gDT13JVUlLGVJhCnKFGrKR5uqWNun5pY5wUpLgXSJf6LWLLm
XVROoONOcj7ZxKmL2EAc46F5/ZE0SlAV3dub4zJL5a+DefMP+oHkdOJ5iRwyUiKM
ti1NG0tyq0sMJAMtAo003YIpx1JhSOIGyoNWG8Wrc0to9Qy5IBNuYKohhx/9Gfc8
U4d8mD4ZbZ93aClokY4UUUNCPMdKJtFw1YNuR9lmOg8IZ7hjKAOSa98Cwm94BybQ
EyPysmoZI4isWwZREw6RDSeEi77gFAqDn8bKkwtx4vmPZtWX5R8wD3P+TQ==
-----END CERTIFICATE-----
