Certificate:
    Data:
        Version: 3 (0x2)
        Serial Number:
            a9:ba:f4:4c:cf:ca:c8:bb
    Signature Algorithm: sha256WithRSAEncryption
        Issuer: C=SW, L=Stockholm, O=ACME, CN=OpenVPN-ACME-CA
        Validity
            Not Before: Mar  3 13:05:23 2016 GMT
            Not After : Mar  4 13:05:23 2016 GMT
        Subject: C=SW, L=Stockholm, O=ACME, CN=temporal_certificate.acme.sw
        Subject Public Key Info:
            Public Key Algorithm: rsaEncryption
                Public-Key: (2048 bit)
                Modulus:
                    00:bc:40:c7:0a:ba:ed:93:bf:79:fa:d7:67:5d:d6:
                    6e:fd:20:50:44:25:69:71:cc:2e:cd:89:04:e9:e5:
                    18:48:88:b0:3b:08:13:d3:dd:a2:17:9e:2c:ee:1c:
                    ed:01:4c:b6:1d:32:72:43:a5:c2:d4:3f:2d:01:a2:
                    de:de:51:4f:97:44:bd:55:97:92:e1:83:7d:10:b3:
                    a8:9f:9e:c9:ba:a3:c9:cf:f8:5e:13:6e:28:bd:50:
                    b4:e7:d8:17:c4:a6:6a:46:dd:7b:27:9e:43:8b:6b:
                    06:b6:36:0c:66:01:45:9e:73:40:b2:1c:97:82:14:
                    75:dc:10:0b:f0:d3:7f:30:61:32:c3:f6:61:9e:0d:
                    36:f9:55:79:50:2b:fb:bc:0b:b2:b4:94:49:73:9a:
                    1c:63:54:d7:68:ed:1e:57:1d:01:63:74:9c:6b:dc:
                    ed:42:5a:49:68:e7:5a:51:9d:b4:9e:2f:6b:0a:a7:
                    35:cf:35:5b:98:4b:07:e8:6b:e8:fe:25:87:88:57:
                    33:21:2c:ca:9a:c9:2b:a9:a0:fe:03:3c:f1:11:7b:
                    02:ea:48:53:87:2d:c4:14:96:53:7f:e8:98:1b:11:
                    f3:06:19:2f:69:8b:30:c7:a6:fe:4a:53:28:9c:88:
                    b4:0a:d8:58:bc:63:51:58:57:df:a3:0a:d9:da:a0:
                    f1:11
                Exponent: 65537 (0x10001)
        X509v3 extensions:
            X509v3 Basic Constraints: 
                CA:FALSE
            Netscape Cert Type: 
                SSL Client
            X509v3 Key Usage: 
                Digital Signature
            X509v3 Extended Key Usage: 
                TLS Web Client Authentication
            X509v3 Subject Key Identifier: 
                72:E1:59:26:40:5B:FB:C8:ED:55:FD:9B:C6:A3:86:E9:C8:38:3F:C3
            X509v3 Authority Key Identifier: 
                keyid:62:1E:04:9A:97:BD:40:30:BF:C6:24:BD:9D:5C:9C:FB:EF:21:CB:E2

            X509v3 Subject Alternative Name: 
                email:hostmaster@acme.sw
    Signature Algorithm: sha256WithRSAEncryption
         c2:df:ba:7e:25:ee:94:e2:17:41:eb:bf:6a:79:72:3e:4a:0f:
         53:6c:65:02:c5:ac:dc:4f:70:69:c3:69:6d:e3:32:6d:c0:6e:
         b9:99:87:6a:45:83:fd:40:ff:24:40:e6:0c:2d:e2:29:f3:25:
         50:c1:b1:e4:94:7a:d3:5b:02:ad:16:17:4a:e0:e2:f2:bb:02:
         35:5f:17:66:1f:87:93:35:31:4f:50:fb:be:ad:04:7c:7d:54:
         ca:50:9b:18:57:32:ef:0a:10:5c:6d:b9:24:9c:90:9a:eb:2e:
         52:98:00:a5:66:c1:55:e7:4e:7e:d1:19:fa:69:de:a0:6a:87:
         04:3a:ef:31:05:5b:f7:ec:67:b0:21:6f:17:c4:ee:94:81:d6:
         5e:7c:c7:b0:e6:c4:93:5e:97:cd:bd:be:90:c8:2d:07:d6:fc:
         21:89:08:ad:25:d2:a0:db:86:a1:b0:38:9a:6a:96:54:55:ec:
         90:2c:58:88:5c:d1:b2:b0:f4:b7:2d:a5:f5:6e:54:03:93:f7:
         80:d4:e0:07:f4:73:76:b5:50:7d:e3:e5:1e:fa:2d:7c:bc:1b:
         9d:f9:cd:a8:5d:b4:89:b9:52:48:9e:84:0d:a3:f2:26:35:c1:
         f3:d5:b1:a9:38:8a:41:2e:17:68:f8:a5:bf:89:88:07:93:b4:
         a6:36:fa:ee
-----BEGIN CERTIFICATE-----
MIIDxzCCAq+gAwIBAgIJAKm69EzPysi7MA0GCSqGSIb3DQEBCwUAMEoxCzAJBgNV
BAYTAlNXMRIwEAYDVQQHDAlTdG9ja2hvbG0xDTALBgNVBAoMBEFDTUUxGDAWBgNV
BAMMD09wZW5WUE4tQUNNRS1DQTAeFw0xNjAzMDMxMzA1MjNaFw0xNjAzMDQxMzA1
MjNaMFcxCzAJBgNVBAYTAlNXMRIwEAYDVQQHDAlTdG9ja2hvbG0xDTALBgNVBAoM
BEFDTUUxJTAjBgNVBAMMHHRlbXBvcmFsX2NlcnRpZmljYXRlLmFjbWUuc3cwggEi
MA0GCSqGSIb3DQEBAQUAA4IBDwAwggEKAoIBAQC8QMcKuu2Tv3n612dd1m79IFBE
JWlxzC7NiQTp5RhIiLA7CBPT3aIXnizuHO0BTLYdMnJDpcLUPy0Bot7eUU+XRL1V
l5Lhg30Qs6ifnsm6o8nP+F4Tbii9ULTn2BfEpmpG3XsnnkOLawa2NgxmAUWec0Cy
HJeCFHXcEAvw038wYTLD9mGeDTb5VXlQK/u8C7K0lElzmhxjVNdo7R5XHQFjdJxr
3O1CWklo51pRnbSeL2sKpzXPNVuYSwfoa+j+JYeIVzMhLMqaySupoP4DPPERewLq
SFOHLcQUllN/6JgbEfMGGS9pizDHpv5KUyiciLQK2Fi8Y1FYV9+jCtnaoPERAgMB
AAGjgaIwgZ8wCQYDVR0TBAIwADARBglghkgBhvhCAQEEBAMCB4AwCwYDVR0PBAQD
AgeAMBMGA1UdJQQMMAoGCCsGAQUFBwMCMB0GA1UdDgQWBBRy4VkmQFv7yO1V/ZvG
o4bpyDg/wzAfBgNVHSMEGDAWgBRiHgSal71AML/GJL2dXJz77yHL4jAdBgNVHREE
FjAUgRJob3N0bWFzdGVyQGFjbWUuc3cwDQYJKoZIhvcNAQELBQADggEBAMLfun4l
7pTiF0Hrv2p5cj5KD1NsZQLFrNxPcGnDaW3jMm3AbrmZh2pFg/1A/yRA5gwt4inz
JVDBseSUetNbAq0WF0rg4vK7AjVfF2Yfh5M1MU9Q+76tBHx9VMpQmxhXMu8KEFxt
uSSckJrrLlKYAKVmwVXnTn7RGfpp3qBqhwQ67zEFW/fsZ7AhbxfE7pSB1l58x7Dm
xJNel829vpDILQfW/CGJCK0l0qDbhqGwOJpqllRV7JAsWIhc0bKw9LctpfVuVAOT
94DU4Af0c3a1UH3j5R76LXy8G535zahdtIm5UkiehA2j8iY1wfPVsak4ikEuF2j4
pb+JiAeTtKY2+u4=
-----END CERTIFICATE-----
