Certificate:
    Data:
        Version: 3 (0x2)
        Serial Number:
            a9:ba:f4:4c:cf:ca:c8:d3
    Signature Algorithm: sha256WithRSAEncryption
        Issuer: C=SW, L=Stockholm, O=ACME, CN=OpenVPN-ACME-CA
        Validity
            Not Before: Mar  3 13:22:45 2016 GMT
            Not After : Mar  4 13:22:45 2016 GMT
        Subject: C=SW, L=Stockholm, O=ACME, CN=temporal_certificate.acme.sw
        Subject Public Key Info:
            Public Key Algorithm: rsaEncryption
                Public-Key: (2048 bit)
                Modulus:
                    00:de:86:16:38:67:af:89:9a:dd:74:f8:0e:12:02:
                    53:0a:90:c3:f1:d1:95:af:5e:cb:0b:8b:d9:0c:ae:
                    e0:63:18:34:7e:63:ac:f2:1c:86:27:66:b3:d7:5d:
                    b8:a1:b2:e9:1f:1d:ce:c5:b0:c5:2e:2e:6d:a4:7a:
                    e8:72:00:89:d2:7c:52:00:2b:4e:a4:eb:03:82:64:
                    36:22:eb:62:58:39:2f:37:5a:04:1e:ad:58:e7:a2:
                    3e:c3:fb:e5:74:4d:e5:4b:3a:e5:7c:bc:3f:c3:ae:
                    2c:a5:65:f2:5a:f9:6b:10:43:45:e0:f1:54:62:ef:
                    73:3b:64:86:42:29:bf:0b:79:73:2f:f9:bf:b5:51:
                    6a:c5:8a:c6:b7:c8:a7:ad:91:03:25:74:e7:8d:23:
                    59:52:13:52:7d:df:67:52:a2:89:7b:fa:40:34:5f:
                    e0:c8:d5:38:14:02:fc:a6:dd:0c:7e:ca:62:90:3e:
                    d3:e8:73:35:3d:af:95:a1:1d:8a:53:75:e3:93:56:
                    7f:e8:ce:73:7b:05:93:c0:de:da:76:d8:3e:2f:91:
                    c6:e8:43:42:11:ae:1a:53:2a:f1:5f:e6:9f:fb:77:
                    eb:f7:5d:d0:94:f2:b4:50:65:e0:84:fb:7b:d3:50:
                    0a:58:e6:75:73:4b:5a:21:3c:79:8a:39:b2:63:4c:
                    80:f5
                Exponent: 65537 (0x10001)
        X509v3 extensions:
            X509v3 Basic Constraints: 
                CA:FALSE
            Netscape Cert Type: 
                SSL Client
            X509v3 Key Usage: 
                Digital Signature
            X509v3 Extended Key Usage: 
                TLS Web Client Authentication
            X509v3 Subject Key Identifier: 
                26:79:AA:76:26:56:86:25:50:72:6A:53:49:66:00:1C:AB:3F:C4:12
            X509v3 Authority Key Identifier: 
                keyid:62:1E:04:9A:97:BD:40:30:BF:C6:24:BD:9D:5C:9C:FB:EF:21:CB:E2

            X509v3 Subject Alternative Name: 
                email:hostmaster@acme.sw
    Signature Algorithm: sha256WithRSAEncryption
         bf:74:3a:7f:5f:79:22:98:1f:b9:09:2a:cc:91:c3:61:24:a5:
         df:68:77:89:88:86:db:4d:c2:88:b8:45:a3:93:cd:2c:79:0a:
         25:37:74:41:77:94:a9:c1:5c:05:53:f7:2e:72:ac:db:cd:87:
         e7:2c:14:3d:f2:1a:16:7a:28:b9:6e:c7:11:76:af:cf:dd:bd:
         7f:b4:32:53:9b:d4:0c:08:22:ba:50:fd:e4:02:41:12:f6:57:
         be:28:45:ab:0f:4b:4e:d0:c8:57:a0:75:00:e4:28:63:0c:56:
         62:e0:bf:8b:ef:5b:6b:76:df:7f:2e:a3:8a:37:06:4f:26:3a:
         dc:9f:d7:34:34:c1:d0:4d:5f:5f:d9:3c:d1:94:1d:16:2c:c1:
         4d:d5:cd:f6:9d:8b:43:65:53:17:13:dd:f8:b8:0d:7e:ad:af:
         5e:95:37:e2:c9:ed:1d:08:2a:bc:a7:9f:6b:96:ce:68:c1:55:
         ed:79:05:c1:75:1d:aa:71:a3:89:1d:16:bf:2c:d6:26:e9:4e:
         66:60:4e:c8:32:6e:28:f7:c1:7a:14:d4:79:c0:ee:60:30:22:
         9c:04:5b:73:ed:35:f0:57:9a:d1:6e:a7:e0:25:b1:a7:2f:09:
         e0:05:9e:e0:f5:00:af:b8:4c:40:39:4f:f3:93:81:34:83:8f:
         b2:19:eb:ce
-----BEGIN CERTIFICATE-----
MIIDxzCCAq+gAwIBAgIJAKm69EzPysjTMA0GCSqGSIb3DQEBCwUAMEoxCzAJBgNV
BAYTAlNXMRIwEAYDVQQHDAlTdG9ja2hvbG0xDTALBgNVBAoMBEFDTUUxGDAWBgNV
BAMMD09wZW5WUE4tQUNNRS1DQTAeFw0xNjAzMDMxMzIyNDVaFw0xNjAzMDQxMzIy
NDVaMFcxCzAJBgNVBAYTAlNXMRIwEAYDVQQHDAlTdG9ja2hvbG0xDTALBgNVBAoM
BEFDTUUxJTAjBgNVBAMMHHRlbXBvcmFsX2NlcnRpZmljYXRlLmFjbWUuc3cwggEi
MA0GCSqGSIb3DQEBAQUAA4IBDwAwggEKAoIBAQDehhY4Z6+Jmt10+A4SAlMKkMPx
0ZWvXssLi9kMruBjGDR+Y6zyHIYnZrPXXbihsukfHc7FsMUuLm2keuhyAInSfFIA
K06k6wOCZDYi62JYOS83WgQerVjnoj7D++V0TeVLOuV8vD/DriylZfJa+WsQQ0Xg
8VRi73M7ZIZCKb8LeXMv+b+1UWrFisa3yKetkQMldOeNI1lSE1J932dSool7+kA0
X+DI1TgUAvym3Qx+ymKQPtPoczU9r5WhHYpTdeOTVn/oznN7BZPA3tp22D4vkcbo
Q0IRrhpTKvFf5p/7d+v3XdCU8rRQZeCE+3vTUApY5nVzS1ohPHmKObJjTID1AgMB
AAGjgaIwgZ8wCQYDVR0TBAIwADARBglghkgBhvhCAQEEBAMCB4AwCwYDVR0PBAQD
AgeAMBMGA1UdJQQMMAoGCCsGAQUFBwMCMB0GA1UdDgQWBBQmeap2JlaGJVByalNJ
ZgAcqz/EEjAfBgNVHSMEGDAWgBRiHgSal71AML/GJL2dXJz77yHL4jAdBgNVHREE
FjAUgRJob3N0bWFzdGVyQGFjbWUuc3cwDQYJKoZIhvcNAQELBQADggEBAL90On9f
eSKYH7kJKsyRw2Ekpd9od4mIhttNwoi4RaOTzSx5CiU3dEF3lKnBXAVT9y5yrNvN
h+csFD3yGhZ6KLluxxF2r8/dvX+0MlOb1AwIIrpQ/eQCQRL2V74oRasPS07QyFeg
dQDkKGMMVmLgv4vvW2t2338uo4o3Bk8mOtyf1zQ0wdBNX1/ZPNGUHRYswU3Vzfad
i0NlUxcT3fi4DX6tr16VN+LJ7R0IKrynn2uWzmjBVe15BcF1Hapxo4kdFr8s1ibp
TmZgTsgybij3wXoU1HnA7mAwIpwEW3PtNfBXmtFup+AlsacvCeAFnuD1AK+4TEA5
T/OTgTSDj7IZ684=
-----END CERTIFICATE-----
