Certificate:
    Data:
        Version: 3 (0x2)
        Serial Number:
            a9:ba:f4:4c:cf:ca:c8:bd
    Signature Algorithm: sha256WithRSAEncryption
        Issuer: C=SW, L=Stockholm, O=ACME, CN=OpenVPN-ACME-CA
        Validity
            Not Before: Mar  3 13:06:17 2016 GMT
            Not After : Mar  4 13:06:17 2016 GMT
        Subject: C=SW, L=Stockholm, O=ACME, CN=temporal_certificate.acme.sw
        Subject Public Key Info:
            Public Key Algorithm: rsaEncryption
                Public-Key: (2048 bit)
                Modulus:
                    00:b4:c2:3e:d1:62:e8:e3:4d:a3:9b:67:c1:78:9b:
                    a2:a2:d8:07:0e:1f:23:c2:72:71:8a:f3:ee:e3:5b:
                    95:c1:ae:68:be:d1:ae:e6:f7:31:b2:1e:e0:17:39:
                    3f:30:80:f5:50:c6:15:28:4b:12:79:aa:4c:54:50:
                    6d:fa:d8:ba:bb:ec:ee:45:5f:61:0a:e2:ff:4d:8f:
                    3c:3e:07:56:fe:9d:57:8b:8d:3f:a0:aa:95:61:b9:
                    8c:43:d2:6c:a4:ae:83:44:ef:f1:bf:49:3a:4f:e0:
                    16:b7:3e:43:92:26:8d:0f:a2:85:8c:f3:00:d2:30:
                    27:ef:8f:1b:98:84:ae:7c:9c:54:24:40:8c:c5:b5:
                    90:8a:37:3a:3c:7e:b0:8d:58:81:fd:91:3b:ed:2b:
                    54:54:24:ba:3d:73:15:04:63:14:47:dc:35:dd:fe:
                    a4:2b:2f:6d:bc:66:0a:0b:cd:cf:88:8d:12:61:d6:
                    5b:63:b2:f5:8b:bd:e2:2d:09:ca:4a:90:ba:b6:aa:
                    75:8f:e1:74:35:d5:42:24:3f:dc:75:dc:d3:f6:2f:
                    55:e3:f9:ec:81:e0:ac:53:21:52:0a:76:96:ae:c9:
                    ec:96:a2:27:fe:21:93:30:43:11:11:b8:6a:9b:60:
                    16:17:bf:c7:71:9a:f1:96:2b:a7:31:76:86:9f:e8:
                    f2:47
                Exponent: 65537 (0x10001)
        X509v3 extensions:
            X509v3 Basic Constraints: 
                CA:FALSE
            Netscape Cert Type: 
                SSL Client
            X509v3 Key Usage: 
                Digital Signature
            X509v3 Extended Key Usage: 
                TLS Web Client Authentication
            X509v3 Subject Key Identifier: 
                42:90:B6:48:41:26:E4:9C:21:53:B4:36:F1:75:8B:01:BA:14:E1:5D
            X509v3 Authority Key Identifier: 
                keyid:62:1E:04:9A:97:BD:40:30:BF:C6:24:BD:9D:5C:9C:FB:EF:21:CB:E2

            X509v3 Subject Alternative Name: 
                email:hostmaster@acme.sw
    Signature Algorithm: sha256WithRSAEncryption
         7f:fa:fc:c3:7f:aa:86:e1:3b:34:56:b4:dd:34:99:3c:de:b4:
         0f:38:cc:a9:13:b7:4e:a0:ec:7e:50:49:04:26:67:fd:a1:b2:
         33:41:1d:71:df:85:ca:46:dd:5b:f5:a2:d2:76:d3:7b:c4:d2:
         43:19:87:53:a5:dd:3b:40:bb:e7:9d:8e:f4:49:43:a1:f3:03:
         85:a1:eb:b6:b5:a7:b5:82:c1:2c:35:ec:8c:b6:64:3f:a4:b0:
         9a:43:b4:db:54:7c:9f:6a:a2:bd:16:79:47:0d:8f:19:51:da:
         ab:d0:a1:01:6c:ea:6e:b6:b6:94:f2:9d:45:5b:3d:5d:14:e0:
         39:13:22:1a:95:c4:79:bf:48:e3:86:ea:fb:a3:cc:9e:eb:46:
         85:53:72:b6:08:02:77:18:0b:c8:73:98:2d:78:bb:44:e7:13:
         ae:ed:32:a2:fc:1a:1e:8f:69:05:63:ce:72:53:14:9c:e9:61:
         21:e9:8f:d5:ad:08:f5:6c:4a:cb:31:ff:eb:0d:72:f4:4e:64:
         df:1d:89:ee:2a:ce:b3:47:28:ce:c1:41:0d:42:09:1d:cc:73:
         c1:5d:ce:f9:b7:58:87:96:c1:7f:c9:55:5b:7c:db:4b:62:e1:
         c0:7e:77:71:f7:bd:f2:fb:7e:11:12:50:8d:4e:e6:70:4b:89:
         38:f5:b6:a7
-----BEGIN CERTIFICATE-----
MIIDxzCCAq+gAwIBAgIJAKm69EzPysi9MA0GCSqGSIb3DQEBCwUAMEoxCzAJBgNV
BAYTAlNXMRIwEAYDVQQHDAlTdG9ja2hvbG0xDTALBgNVBAoMBEFDTUUxGDAWBgNV
BAMMD09wZW5WUE4tQUNNRS1DQTAeFw0xNjAzMDMxMzA2MTdaFw0xNjAzMDQxMzA2
MTdaMFcxCzAJBgNVBAYTAlNXMRIwEAYDVQQHDAlTdG9ja2hvbG0xDTALBgNVBAoM
BEFDTUUxJTAjBgNVBAMMHHRlbXBvcmFsX2NlcnRpZmljYXRlLmFjbWUuc3cwggEi
MA0GCSqGSIb3DQEBAQUAA4IBDwAwggEKAoIBAQC0wj7RYujjTaObZ8F4m6Ki2AcO
HyPCcnGK8+7jW5XBrmi+0a7m9zGyHuAXOT8wgPVQxhUoSxJ5qkxUUG362Lq77O5F
X2EK4v9Njzw+B1b+nVeLjT+gqpVhuYxD0mykroNE7/G/STpP4Ba3PkOSJo0PooWM
8wDSMCfvjxuYhK58nFQkQIzFtZCKNzo8frCNWIH9kTvtK1RUJLo9cxUEYxRH3DXd
/qQrL228ZgoLzc+IjRJh1ltjsvWLveItCcpKkLq2qnWP4XQ11UIkP9x13NP2L1Xj
+eyB4KxTIVIKdpauyeyWoif+IZMwQxERuGqbYBYXv8dxmvGWK6cxdoaf6PJHAgMB
AAGjgaIwgZ8wCQYDVR0TBAIwADARBglghkgBhvhCAQEEBAMCB4AwCwYDVR0PBAQD
AgeAMBMGA1UdJQQMMAoGCCsGAQUFBwMCMB0GA1UdDgQWBBRCkLZIQSbknCFTtDbx
dYsBuhThXTAfBgNVHSMEGDAWgBRiHgSal71AML/GJL2dXJz77yHL4jAdBgNVHREE
FjAUgRJob3N0bWFzdGVyQGFjbWUuc3cwDQYJKoZIhvcNAQELBQADggEBAH/6/MN/
qobhOzRWtN00mTzetA84zKkTt06g7H5QSQQmZ/2hsjNBHXHfhcpG3Vv1otJ203vE
0kMZh1Ol3TtAu+edjvRJQ6HzA4Wh67a1p7WCwSw17Iy2ZD+ksJpDtNtUfJ9qor0W
eUcNjxlR2qvQoQFs6m62tpTynUVbPV0U4DkTIhqVxHm/SOOG6vujzJ7rRoVTcrYI
AncYC8hzmC14u0TnE67tMqL8Gh6PaQVjznJTFJzpYSHpj9WtCPVsSssx/+sNcvRO
ZN8die4qzrNHKM7BQQ1CCR3Mc8Fdzvm3WIeWwX/JVVt820ti4cB+d3H3vfL7fhES
UI1O5nBLiTj1tqc=
-----END CERTIFICATE-----
