Certificate:
    Data:
        Version: 3 (0x2)
        Serial Number:
            a9:ba:f4:4c:cf:ca:c8:c8
    Signature Algorithm: sha256WithRSAEncryption
        Issuer: C=SW, L=Stockholm, O=ACME, CN=OpenVPN-ACME-CA
        Validity
            Not Before: Mar  3 13:08:01 2016 GMT
            Not After : Mar  4 13:08:01 2016 GMT
        Subject: C=SW, L=Stockholm, O=ACME, CN=temporal_certificate.acme.sw
        Subject Public Key Info:
            Public Key Algorithm: rsaEncryption
                Public-Key: (2048 bit)
                Modulus:
                    00:df:fe:ae:15:c3:7d:24:2b:1d:67:93:20:85:58:
                    8f:f6:9e:b2:96:72:4c:71:88:cb:8f:eb:d1:12:7e:
                    12:47:71:d9:a7:7b:c2:ea:b3:f9:1c:99:5d:3a:99:
                    57:7e:93:cc:b6:6e:4b:d6:b1:05:82:01:b6:1a:d6:
                    15:19:78:7c:08:99:49:0c:ed:e5:87:63:aa:cb:e6:
                    c4:9d:73:e0:2e:3f:26:7e:5d:06:8d:8f:a7:63:ff:
                    99:47:92:e6:7e:8a:95:6b:96:1c:c1:a3:13:ef:5e:
                    83:33:e5:0d:67:e2:db:b0:8f:53:86:49:37:3d:12:
                    ea:cf:3f:ad:40:d1:92:9e:fe:39:dd:06:03:e3:77:
                    d4:8f:19:ba:9d:8e:38:1a:93:2a:fa:7b:92:89:6b:
                    5a:f5:c3:05:88:37:f1:28:df:38:8d:d3:c3:7a:2b:
                    5d:11:bb:f9:e4:6f:6f:a6:88:0d:2a:ea:90:48:73:
                    fa:84:82:19:ff:5b:f9:00:b1:4f:e8:ac:5a:95:58:
                    46:23:53:d1:a8:30:7e:e6:5c:e0:d0:03:1f:ee:13:
                    15:f6:61:c5:0c:8e:63:be:20:3f:5d:37:44:1c:c2:
                    be:de:c0:89:d4:f0:d4:13:c5:3e:43:3d:f9:da:df:
                    5b:75:89:01:dc:7f:be:46:a9:53:b7:aa:84:48:1f:
                    6a:fd
                Exponent: 65537 (0x10001)
        X509v3 extensions:
            X509v3 Basic Constraints: 
                CA:FALSE
            Netscape Cert Type: 
                SSL Client
            X509v3 Key Usage: 
                Digital Signature
            X509v3 Extended Key Usage: 
                TLS Web Client Authentication
            X509v3 Subject Key Identifier: 
                60:54:52:7A:39:16:16:00:7A:3B:34:08:FC:0D:9C:FC:9C:2A:DD:5E
            X509v3 Authority Key Identifier: 
                keyid:62:1E:04:9A:97:BD:40:30:BF:C6:24:BD:9D:5C:9C:FB:EF:21:CB:E2

            X509v3 Subject Alternative Name: 
                email:hostmaster@acme.sw
    Signature Algorithm: sha256WithRSAEncryption
         b9:45:96:07:1c:00:16:e2:dc:97:ce:ac:9e:c7:e0:c5:9e:4e:
         2f:70:47:c7:17:30:7a:3f:6b:ee:1e:84:c6:3c:7a:f6:ce:88:
         6d:5d:e3:e6:d1:63:41:9e:40:e4:7d:0a:be:de:ff:bd:ec:70:
         9b:ce:ea:3b:90:f6:9e:49:55:e9:d6:52:fe:28:97:e2:e9:8b:
         1f:5e:ec:ee:27:29:91:e1:73:84:67:01:71:5f:e3:91:35:5d:
         be:a9:82:f5:5b:5e:6a:7e:66:a9:bf:94:56:5c:d2:63:83:8d:
         fb:78:20:15:bf:c4:7c:73:e3:e0:d8:9c:69:ab:c0:6c:be:8b:
         a8:a6:06:d9:a5:fa:dc:37:77:af:2e:fa:c3:ee:1e:1f:58:f7:
         83:e9:f7:1d:12:96:c7:2d:b8:1e:70:89:88:b7:86:b0:c0:e8:
         1b:dc:4b:f3:e3:b1:3a:8e:fa:f5:95:ea:f4:07:e5:cc:55:fe:
         ed:c5:81:4a:d6:09:28:4b:7b:85:8e:bc:5a:26:83:8c:74:d0:
         62:2e:b5:86:e9:b6:4d:a9:ef:6b:d4:00:97:13:8b:df:2a:0c:
         1f:a5:04:5e:a3:2e:ea:91:45:a5:8f:15:12:44:5a:e2:a1:f3:
         4b:ba:1a:51:d8:b4:bb:bc:4e:2b:30:b1:77:08:16:66:a0:69:
         77:72:b1:b2
-----BEGIN CERTIFICATE-----
MIIDxzCCAq+gAwIBAgIJAKm69EzPysjIMA0GCSqGSIb3DQEBCwUAMEoxCzAJBgNV
BAYTAlNXMRIwEAYDVQQHDAlTdG9ja2hvbG0xDTALBgNVBAoMBEFDTUUxGDAWBgNV
BAMMD09wZW5WUE4tQUNNRS1DQTAeFw0xNjAzMDMxMzA4MDFaFw0xNjAzMDQxMzA4
MDFaMFcxCzAJBgNVBAYTAlNXMRIwEAYDVQQHDAlTdG9ja2hvbG0xDTALBgNVBAoM
BEFDTUUxJTAjBgNVBAMMHHRlbXBvcmFsX2NlcnRpZmljYXRlLmFjbWUuc3cwggEi
MA0GCSqGSIb3DQEBAQUAA4IBDwAwggEKAoIBAQDf/q4Vw30kKx1nkyCFWI/2nrKW
ckxxiMuP69ESfhJHcdmne8Lqs/kcmV06mVd+k8y2bkvWsQWCAbYa1hUZeHwImUkM
7eWHY6rL5sSdc+AuPyZ+XQaNj6dj/5lHkuZ+ipVrlhzBoxPvXoMz5Q1n4tuwj1OG
STc9EurPP61A0ZKe/jndBgPjd9SPGbqdjjgakyr6e5KJa1r1wwWIN/Eo3ziN08N6
K10Ru/nkb2+miA0q6pBIc/qEghn/W/kAsU/orFqVWEYjU9GoMH7mXODQAx/uExX2
YcUMjmO+ID9dN0Qcwr7ewInU8NQTxT5DPfna31t1iQHcf75GqVO3qoRIH2r9AgMB
AAGjgaIwgZ8wCQYDVR0TBAIwADARBglghkgBhvhCAQEEBAMCB4AwCwYDVR0PBAQD
AgeAMBMGA1UdJQQMMAoGCCsGAQUFBwMCMB0GA1UdDgQWBBRgVFJ6ORYWAHo7NAj8
DZz8nCrdXjAfBgNVHSMEGDAWgBRiHgSal71AML/GJL2dXJz77yHL4jAdBgNVHREE
FjAUgRJob3N0bWFzdGVyQGFjbWUuc3cwDQYJKoZIhvcNAQELBQADggEBALlFlgcc
ABbi3JfOrJ7H4MWeTi9wR8cXMHo/a+4ehMY8evbOiG1d4+bRY0GeQOR9Cr7e/73s
cJvO6juQ9p5JVenWUv4ol+Lpix9e7O4nKZHhc4RnAXFf45E1Xb6pgvVbXmp+Zqm/
lFZc0mODjft4IBW/xHxz4+DYnGmrwGy+i6imBtml+tw3d68u+sPuHh9Y94Pp9x0S
lsctuB5wiYi3hrDA6BvcS/PjsTqO+vWV6vQH5cxV/u3FgUrWCShLe4WOvFomg4x0
0GIutYbptk2p72vUAJcTi98qDB+lBF6jLuqRRaWPFRJEWuKh80u6GlHYtLu8Tisw
sXcIFmagaXdysbI=
-----END CERTIFICATE-----
