Certificate:
    Data:
        Version: 3 (0x2)
        Serial Number:
            a9:ba:f4:4c:cf:ca:c8:cd
    Signature Algorithm: sha256WithRSAEncryption
        Issuer: C=SW, L=Stockholm, O=ACME, CN=OpenVPN-ACME-CA
        Validity
            Not Before: Mar  3 13:10:58 2016 GMT
            Not After : Mar  4 13:10:58 2016 GMT
        Subject: C=SW, L=Stockholm, O=ACME, CN=temporal_certificate.acme.sw
        Subject Public Key Info:
            Public Key Algorithm: rsaEncryption
                Public-Key: (2048 bit)
                Modulus:
                    00:c0:a7:78:51:3f:f9:23:3e:27:af:12:d8:f6:9b:
                    6c:1c:9d:8e:7a:34:48:0c:46:4e:33:08:7b:3a:81:
                    07:a8:30:42:82:31:2e:48:73:d4:ae:f1:14:b5:11:
                    4e:58:ee:10:71:a7:07:96:32:f6:69:8f:6a:7b:13:
                    74:93:58:2d:b2:78:62:da:da:f4:83:ea:96:ad:c7:
                    b4:34:68:9b:dd:cc:ac:6c:57:8a:7a:40:41:2a:a8:
                    6d:c1:4c:20:4d:a6:ab:f8:9e:f3:e1:fc:0b:b3:9c:
                    06:82:aa:39:e8:19:00:c4:74:ea:f3:2b:c7:40:0a:
                    24:57:e6:93:e1:51:ad:80:17:2f:8d:16:03:6c:69:
                    1e:c2:f1:cb:1d:31:4e:04:54:6e:ab:57:6d:02:43:
                    b6:f6:d2:a6:3e:03:66:03:02:da:ab:ce:19:43:96:
                    05:7b:fd:44:9d:47:1e:87:7a:91:25:d0:1f:4b:db:
                    6a:9f:03:63:be:74:de:2f:89:f4:8e:c3:0e:cb:51:
                    c7:91:f7:03:54:15:73:59:6b:90:58:21:6f:9e:fe:
                    78:13:fe:0f:88:19:ae:8f:dc:fc:bd:e7:bf:dc:6f:
                    76:80:79:bc:3c:d0:95:b2:4d:d1:db:dc:41:e9:0a:
                    94:3b:d0:40:d2:3a:5f:b9:32:5c:b4:93:c1:a1:60:
                    f5:5f
                Exponent: 65537 (0x10001)
        X509v3 extensions:
            X509v3 Basic Constraints: 
                CA:FALSE
            Netscape Cert Type: 
                SSL Client
            X509v3 Key Usage: 
                Digital Signature
            X509v3 Extended Key Usage: 
                TLS Web Client Authentication
            X509v3 Subject Key Identifier: 
                12:6A:BB:2F:E3:EF:81:C1:6F:5C:E7:3B:15:A4:89:29:5F:46:C2:25
            X509v3 Authority Key Identifier: 
                keyid:62:1E:04:9A:97:BD:40:30:BF:C6:24:BD:9D:5C:9C:FB:EF:21:CB:E2

            X509v3 Subject Alternative Name: 
                email:hostmaster@acme.sw
    Signature Algorithm: sha256WithRSAEncryption
         9d:61:ff:1c:a6:0f:05:e6:c4:6b:33:83:80:56:94:0a:4b:50:
         31:92:39:23:5a:16:87:fc:be:84:ea:36:f9:97:bf:60:d3:cc:
         6f:9f:a4:2d:4d:e3:bb:cd:70:c0:ce:0d:bb:ed:17:57:38:f4:
         26:e4:52:9e:83:bc:42:61:31:92:dc:48:75:ab:1e:4c:44:e6:
         2a:93:2a:db:bb:b6:22:9c:b7:aa:38:4d:08:8c:45:18:6d:c2:
         16:a7:e3:a2:b0:b9:d3:2f:98:26:a3:96:3c:8d:35:8a:16:d2:
         21:93:21:6e:c0:39:a9:79:f0:a3:49:2b:65:5f:f2:6f:00:7b:
         67:4d:fb:43:ed:b8:3f:5e:2e:87:3e:5b:69:95:52:f8:d9:d8:
         9d:56:c1:01:dd:f1:e5:20:48:48:ec:42:08:f5:b4:37:99:cd:
         6d:f8:ff:b3:65:c3:2a:15:82:ed:4a:cd:6a:b3:4b:94:95:76:
         73:b8:40:e1:b7:13:2f:5d:21:be:ae:d4:1b:a3:be:3b:21:59:
         39:1c:fd:e4:58:b8:c6:53:77:da:89:1a:0c:f8:19:97:74:ee:
         8f:ba:21:9b:ff:a6:b7:e3:10:fe:20:87:dc:09:2a:da:68:b7:
         fa:77:29:69:95:f2:40:46:53:9c:02:a3:b0:59:12:2c:35:53:
         91:5e:d2:9e
-----BEGIN CERTIFICATE-----
MIIDxzCCAq+gAwIBAgIJAKm69EzPysjNMA0GCSqGSIb3DQEBCwUAMEoxCzAJBgNV
BAYTAlNXMRIwEAYDVQQHDAlTdG9ja2hvbG0xDTALBgNVBAoMBEFDTUUxGDAWBgNV
BAMMD09wZW5WUE4tQUNNRS1DQTAeFw0xNjAzMDMxMzEwNThaFw0xNjAzMDQxMzEw
NThaMFcxCzAJBgNVBAYTAlNXMRIwEAYDVQQHDAlTdG9ja2hvbG0xDTALBgNVBAoM
BEFDTUUxJTAjBgNVBAMMHHRlbXBvcmFsX2NlcnRpZmljYXRlLmFjbWUuc3cwggEi
MA0GCSqGSIb3DQEBAQUAA4IBDwAwggEKAoIBAQDAp3hRP/kjPievEtj2m2wcnY56
NEgMRk4zCHs6gQeoMEKCMS5Ic9Su8RS1EU5Y7hBxpweWMvZpj2p7E3STWC2yeGLa
2vSD6patx7Q0aJvdzKxsV4p6QEEqqG3BTCBNpqv4nvPh/AuznAaCqjnoGQDEdOrz
K8dACiRX5pPhUa2AFy+NFgNsaR7C8csdMU4EVG6rV20CQ7b20qY+A2YDAtqrzhlD
lgV7/USdRx6HepEl0B9L22qfA2O+dN4vifSOww7LUceR9wNUFXNZa5BYIW+e/ngT
/g+IGa6P3Py957/cb3aAebw80JWyTdHb3EHpCpQ70EDSOl+5Mly0k8GhYPVfAgMB
AAGjgaIwgZ8wCQYDVR0TBAIwADARBglghkgBhvhCAQEEBAMCB4AwCwYDVR0PBAQD
AgeAMBMGA1UdJQQMMAoGCCsGAQUFBwMCMB0GA1UdDgQWBBQSarsv4++BwW9c5zsV
pIkpX0bCJTAfBgNVHSMEGDAWgBRiHgSal71AML/GJL2dXJz77yHL4jAdBgNVHREE
FjAUgRJob3N0bWFzdGVyQGFjbWUuc3cwDQYJKoZIhvcNAQELBQADggEBAJ1h/xym
DwXmxGszg4BWlApLUDGSOSNaFof8voTqNvmXv2DTzG+fpC1N47vNcMDODbvtF1c4
9CbkUp6DvEJhMZLcSHWrHkxE5iqTKtu7tiKct6o4TQiMRRhtwhan46KwudMvmCaj
ljyNNYoW0iGTIW7AOal58KNJK2Vf8m8Ae2dN+0PtuD9eLoc+W2mVUvjZ2J1WwQHd
8eUgSEjsQgj1tDeZzW34/7NlwyoVgu1KzWqzS5SVdnO4QOG3Ey9dIb6u1Bujvjsh
WTkc/eRYuMZTd9qJGgz4GZd07o+6IZv/prfjEP4gh9wJKtpot/p3KWmV8kBGU5wC
o7BZEiw1U5Fe0p4=
-----END CERTIFICATE-----
