Certificate:
    Data:
        Version: 3 (0x2)
        Serial Number:
            a9:ba:f4:4c:cf:ca:c8:cc
    Signature Algorithm: sha256WithRSAEncryption
        Issuer: C=SW, L=Stockholm, O=ACME, CN=OpenVPN-ACME-CA
        Validity
            Not Before: Mar  3 13:10:58 2016 GMT
            Not After : Mar  4 13:10:58 2016 GMT
        Subject: C=SW, L=Stockholm, O=ACME, CN=temporal_certificate.acme.sw
        Subject Public Key Info:
            Public Key Algorithm: rsaEncryption
                Public-Key: (2048 bit)
                Modulus:
                    00:c2:5f:2e:94:5b:d0:86:36:30:06:1d:e3:d0:bb:
                    63:c8:da:43:ef:90:af:20:a9:a6:cf:2b:ab:c1:e2:
                    64:b0:d0:a7:81:ff:3a:da:ad:87:c1:20:91:b3:8f:
                    8c:6b:ab:66:f5:bf:b4:01:eb:68:4c:a5:13:68:c4:
                    64:59:3c:b3:da:3c:73:7d:6b:32:be:67:ed:b8:82:
                    23:77:a5:7c:c0:83:05:c2:2c:bf:7f:c5:09:90:ea:
                    4d:2a:d7:62:37:bf:71:3e:ec:8e:07:95:19:38:0f:
                    59:69:c8:07:5a:1e:f8:a5:00:19:4d:d9:db:6b:20:
                    0f:a9:9b:de:2f:28:90:ec:47:f4:fd:f4:56:ee:e8:
                    48:4c:18:20:3d:e8:66:70:c0:99:6a:a1:ec:c7:7a:
                    97:5a:b8:8c:f0:c6:da:8b:50:63:09:8c:c1:f9:59:
                    ae:de:bc:14:ed:ec:83:7a:ab:6c:52:03:11:98:6d:
                    7c:dd:5c:4c:c6:93:20:91:65:24:aa:1b:1e:8d:43:
                    32:df:e1:e3:c7:48:24:20:5a:1a:dc:05:fe:fa:3c:
                    8f:1f:7d:ae:15:98:99:6e:e4:63:a7:89:38:d8:92:
                    ae:9b:e3:a6:f0:91:44:46:6b:99:61:5c:a9:dd:d5:
                    50:1d:21:9a:4f:e4:dd:95:50:ad:87:11:f7:15:e6:
                    bd:6b
                Exponent: 65537 (0x10001)
        X509v3 extensions:
            X509v3 Basic Constraints: 
                CA:FALSE
            Netscape Cert Type: 
                SSL Client
            X509v3 Key Usage: 
                Digital Signature
            X509v3 Extended Key Usage: 
                TLS Web Client Authentication
            X509v3 Subject Key Identifier: 
                EB:F0:00:CD:77:26:BA:79:EE:D8:3B:76:D6:41:DF:DD:B3:A1:B7:B5
            X509v3 Authority Key Identifier: 
                keyid:62:1E:04:9A:97:BD:40:30:BF:C6:24:BD:9D:5C:9C:FB:EF:21:CB:E2

            X509v3 Subject Alternative Name: 
                email:hostmaster@acme.sw
    Signature Algorithm: sha256WithRSAEncryption
         79:ca:95:fe:d5:d7:b9:ff:08:e0:d6:ac:2c:ca:d1:84:e8:8c:
         98:4d:64:a2:e2:2d:57:8d:ab:d9:1b:09:25:8c:80:26:f7:5c:
         37:bd:6d:0d:5e:43:29:f8:c6:2d:2e:5c:bf:18:60:41:e3:13:
         ee:b8:15:5c:65:6d:07:f1:b3:39:a9:fc:24:ea:46:95:40:49:
         35:f6:57:68:fb:3c:5a:46:f5:ab:96:9e:e7:db:4b:01:22:eb:
         16:4a:8a:c3:4a:67:ed:39:8b:a1:10:4c:b6:63:36:27:5a:cb:
         81:4b:43:b2:03:1d:65:cf:96:d9:f8:b9:04:b5:c2:2e:b6:7b:
         58:78:7f:e2:9c:dc:b2:a5:fb:2e:83:6b:52:ee:2f:bc:d7:87:
         33:fe:52:6f:7f:a7:bf:16:c9:64:54:7f:48:a7:29:7d:63:30:
         8b:23:cb:57:c5:5c:d1:37:2c:0c:05:c9:c5:19:4b:4d:01:72:
         46:0a:0c:f0:a2:f0:2c:97:95:b4:e7:6c:33:90:87:f3:a0:f3:
         ff:b0:05:06:bc:e5:91:9a:40:d1:99:01:26:93:42:1f:ae:5d:
         38:e6:c6:f6:cc:f8:aa:03:e2:06:e5:4e:d8:e9:ad:2f:03:e6:
         ea:f9:12:e9:65:a8:36:94:fa:ae:ca:c1:80:82:b6:84:68:3b:
         7c:33:9c:b8
-----BEGIN CERTIFICATE-----
MIIDxzCCAq+gAwIBAgIJAKm69EzPysjMMA0GCSqGSIb3DQEBCwUAMEoxCzAJBgNV
BAYTAlNXMRIwEAYDVQQHDAlTdG9ja2hvbG0xDTALBgNVBAoMBEFDTUUxGDAWBgNV
BAMMD09wZW5WUE4tQUNNRS1DQTAeFw0xNjAzMDMxMzEwNThaFw0xNjAzMDQxMzEw
NThaMFcxCzAJBgNVBAYTAlNXMRIwEAYDVQQHDAlTdG9ja2hvbG0xDTALBgNVBAoM
BEFDTUUxJTAjBgNVBAMMHHRlbXBvcmFsX2NlcnRpZmljYXRlLmFjbWUuc3cwggEi
MA0GCSqGSIb3DQEBAQUAA4IBDwAwggEKAoIBAQDCXy6UW9CGNjAGHePQu2PI2kPv
kK8gqabPK6vB4mSw0KeB/zrarYfBIJGzj4xrq2b1v7QB62hMpRNoxGRZPLPaPHN9
azK+Z+24giN3pXzAgwXCLL9/xQmQ6k0q12I3v3E+7I4HlRk4D1lpyAdaHvilABlN
2dtrIA+pm94vKJDsR/T99Fbu6EhMGCA96GZwwJlqoezHepdauIzwxtqLUGMJjMH5
Wa7evBTt7IN6q2xSAxGYbXzdXEzGkyCRZSSqGx6NQzLf4ePHSCQgWhrcBf76PI8f
fa4VmJlu5GOniTjYkq6b46bwkURGa5lhXKnd1VAdIZpP5N2VUK2HEfcV5r1rAgMB
AAGjgaIwgZ8wCQYDVR0TBAIwADARBglghkgBhvhCAQEEBAMCB4AwCwYDVR0PBAQD
AgeAMBMGA1UdJQQMMAoGCCsGAQUFBwMCMB0GA1UdDgQWBBTr8ADNdya6ee7YO3bW
Qd/ds6G3tTAfBgNVHSMEGDAWgBRiHgSal71AML/GJL2dXJz77yHL4jAdBgNVHREE
FjAUgRJob3N0bWFzdGVyQGFjbWUuc3cwDQYJKoZIhvcNAQELBQADggEBAHnKlf7V
17n/CODWrCzK0YTojJhNZKLiLVeNq9kbCSWMgCb3XDe9bQ1eQyn4xi0uXL8YYEHj
E+64FVxlbQfxszmp/CTqRpVASTX2V2j7PFpG9auWnufbSwEi6xZKisNKZ+05i6EQ
TLZjNiday4FLQ7IDHWXPltn4uQS1wi62e1h4f+Kc3LKl+y6Da1LuL7zXhzP+Um9/
p78WyWRUf0inKX1jMIsjy1fFXNE3LAwFycUZS00BckYKDPCi8CyXlbTnbDOQh/Og
8/+wBQa85ZGaQNGZASaTQh+uXTjmxvbM+KoD4gblTtjprS8D5ur5EullqDaU+q7K
wYCCtoRoO3wznLg=
-----END CERTIFICATE-----
