Certificate:
    Data:
        Version: 3 (0x2)
        Serial Number:
            a9:ba:f4:4c:cf:ca:c8:c0
    Signature Algorithm: sha256WithRSAEncryption
        Issuer: C=SW, L=Stockholm, O=ACME, CN=OpenVPN-ACME-CA
        Validity
            Not Before: Mar  3 13:06:31 2016 GMT
            Not After : Mar  4 13:06:31 2016 GMT
        Subject: C=SW, L=Stockholm, O=ACME, CN=temporal_certificate.acme.sw
        Subject Public Key Info:
            Public Key Algorithm: rsaEncryption
                Public-Key: (2048 bit)
                Modulus:
                    00:99:03:76:75:a4:62:a5:f8:bd:52:6f:e0:66:e2:
                    f7:83:22:d1:6f:a3:e9:ef:1e:6c:fa:e5:23:cc:14:
                    e1:3c:c5:18:d8:30:cb:33:86:e0:e1:c5:52:f9:0f:
                    87:56:e0:8e:3f:37:5a:58:cb:e0:c2:2d:b2:59:84:
                    79:08:41:e1:fe:b5:40:a7:4d:fe:d7:39:55:c2:76:
                    e9:6a:c6:16:20:a3:27:b1:d6:53:3f:46:aa:c5:59:
                    04:67:c3:01:03:71:41:83:9e:46:c9:56:c5:82:59:
                    e0:07:87:9f:72:e6:cb:3d:23:93:6f:7c:3b:83:6f:
                    65:74:b4:6d:a3:98:53:46:b4:cb:2e:b0:54:55:ed:
                    d2:79:fd:e5:5f:a0:e0:04:88:0b:e7:6f:b4:3c:24:
                    c3:ae:43:c7:25:e9:34:07:c6:5d:82:6d:32:00:91:
                    73:c8:0b:4e:00:60:c6:48:b8:17:69:05:ff:f6:52:
                    26:ed:5d:39:ad:16:6f:03:69:55:63:00:50:db:98:
                    ff:63:c9:56:c4:8a:da:e7:f3:9c:f6:90:22:74:ec:
                    20:ce:62:d6:1a:2b:c7:b8:63:70:c8:a4:5c:b5:b2:
                    1f:75:f4:f0:0a:03:eb:8c:e7:1f:e9:a6:c6:62:32:
                    ed:ba:49:1b:81:0c:4d:4d:d6:a1:81:ec:fe:59:b2:
                    2c:1d
                Exponent: 65537 (0x10001)
        X509v3 extensions:
            X509v3 Basic Constraints: 
                CA:FALSE
            Netscape Cert Type: 
                SSL Client
            X509v3 Key Usage: 
                Digital Signature
            X509v3 Extended Key Usage: 
                TLS Web Client Authentication
            X509v3 Subject Key Identifier: 
                E8:97:91:45:03:9D:D6:CF:71:F2:8A:AA:95:82:F1:7D:05:49:79:E6
            X509v3 Authority Key Identifier: 
                keyid:62:1E:04:9A:97:BD:40:30:BF:C6:24:BD:9D:5C:9C:FB:EF:21:CB:E2

            X509v3 Subject Alternative Name: 
                email:hostmaster@acme.sw
    Signature Algorithm: sha256WithRSAEncryption
         05:a6:55:49:8e:cb:0c:47:b9:da:eb:7d:04:ad:03:5f:66:9d:
         e6:54:d2:47:cb:58:a9:c4:99:6a:65:46:ca:9a:3c:53:a4:83:
         bb:c5:b2:08:10:12:b0:a7:67:89:00:80:f2:2b:d7:7c:ab:cf:
         29:45:d8:f3:bc:cc:3d:25:07:08:f2:66:4a:89:ba:ad:10:f5:
         33:1d:43:90:8e:f1:c0:20:a8:ec:0e:9d:b5:ed:c3:95:fe:44:
         38:11:f1:fe:b0:73:11:cf:9d:66:13:15:84:ef:ac:ca:43:e0:
         90:da:ba:ed:3f:c9:51:74:f6:5d:e6:5f:7d:53:09:5f:97:7d:
         92:b4:fb:a1:68:d4:be:e5:da:ba:fb:a5:f4:0f:98:0e:17:2c:
         f5:a1:d7:24:cb:17:f2:69:24:2d:c9:ec:6f:48:ab:37:ec:d0:
         6c:74:94:4f:1a:f2:69:ff:9a:9a:60:ea:85:a4:72:07:2f:a3:
         84:31:22:4a:2c:a7:f0:4d:aa:11:bd:cc:0a:38:b6:a2:4b:25:
         f5:f4:39:14:09:de:9d:93:f1:25:fd:ce:04:e9:f9:e4:3a:f2:
         3a:0c:08:1f:ad:1b:f1:63:3d:9e:54:b7:fb:07:c5:12:f6:9b:
         11:65:cf:12:be:9b:20:1f:89:02:bd:3b:4b:da:e9:7c:19:52:
         eb:28:68:bf
-----BEGIN CERTIFICATE-----
MIIDxzCCAq+gAwIBAgIJAKm69EzPysjAMA0GCSqGSIb3DQEBCwUAMEoxCzAJBgNV
BAYTAlNXMRIwEAYDVQQHDAlTdG9ja2hvbG0xDTALBgNVBAoMBEFDTUUxGDAWBgNV
BAMMD09wZW5WUE4tQUNNRS1DQTAeFw0xNjAzMDMxMzA2MzFaFw0xNjAzMDQxMzA2
MzFaMFcxCzAJBgNVBAYTAlNXMRIwEAYDVQQHDAlTdG9ja2hvbG0xDTALBgNVBAoM
BEFDTUUxJTAjBgNVBAMMHHRlbXBvcmFsX2NlcnRpZmljYXRlLmFjbWUuc3cwggEi
MA0GCSqGSIb3DQEBAQUAA4IBDwAwggEKAoIBAQCZA3Z1pGKl+L1Sb+Bm4veDItFv
o+nvHmz65SPMFOE8xRjYMMszhuDhxVL5D4dW4I4/N1pYy+DCLbJZhHkIQeH+tUCn
Tf7XOVXCdulqxhYgoyex1lM/RqrFWQRnwwEDcUGDnkbJVsWCWeAHh59y5ss9I5Nv
fDuDb2V0tG2jmFNGtMsusFRV7dJ5/eVfoOAEiAvnb7Q8JMOuQ8cl6TQHxl2CbTIA
kXPIC04AYMZIuBdpBf/2UibtXTmtFm8DaVVjAFDbmP9jyVbEitrn85z2kCJ07CDO
YtYaK8e4Y3DIpFy1sh919PAKA+uM5x/ppsZiMu26SRuBDE1N1qGB7P5ZsiwdAgMB
AAGjgaIwgZ8wCQYDVR0TBAIwADARBglghkgBhvhCAQEEBAMCB4AwCwYDVR0PBAQD
AgeAMBMGA1UdJQQMMAoGCCsGAQUFBwMCMB0GA1UdDgQWBBTol5FFA53Wz3HyiqqV
gvF9BUl55jAfBgNVHSMEGDAWgBRiHgSal71AML/GJL2dXJz77yHL4jAdBgNVHREE
FjAUgRJob3N0bWFzdGVyQGFjbWUuc3cwDQYJKoZIhvcNAQELBQADggEBAAWmVUmO
ywxHudrrfQStA19mneZU0kfLWKnEmWplRsqaPFOkg7vFsggQErCnZ4kAgPIr13yr
zylF2PO8zD0lBwjyZkqJuq0Q9TMdQ5CO8cAgqOwOnbXtw5X+RDgR8f6wcxHPnWYT
FYTvrMpD4JDauu0/yVF09l3mX31TCV+XfZK0+6Fo1L7l2rr7pfQPmA4XLPWh1yTL
F/JpJC3J7G9Iqzfs0Gx0lE8a8mn/mppg6oWkcgcvo4QxIkosp/BNqhG9zAo4tqJL
JfX0ORQJ3p2T8SX9zgTp+eQ68joMCB+tG/FjPZ5Ut/sHxRL2mxFlzxK+myAfiQK9
O0va6XwZUusoaL8=
-----END CERTIFICATE-----
