Certificate:
    Data:
        Version: 3 (0x2)
        Serial Number:
            a9:ba:f4:4c:cf:ca:c8:c2
    Signature Algorithm: sha256WithRSAEncryption
        Issuer: C=SW, L=Stockholm, O=ACME, CN=OpenVPN-ACME-CA
        Validity
            Not Before: Mar  3 13:06:43 2016 GMT
            Not After : Mar  4 13:06:43 2016 GMT
        Subject: C=SW, L=Stockholm, O=ACME, CN=temporal_certificate.acme.sw
        Subject Public Key Info:
            Public Key Algorithm: rsaEncryption
                Public-Key: (2048 bit)
                Modulus:
                    00:ad:de:b7:c1:d9:33:b5:93:44:20:46:fa:e9:96:
                    c0:3c:01:cd:2f:9b:a0:9e:3c:1f:64:cb:5d:95:22:
                    a4:7d:39:fd:d7:66:4b:02:29:ee:9f:17:bd:71:33:
                    19:43:cc:ae:59:17:6c:03:d9:8d:4f:b9:ee:c5:41:
                    98:f2:14:24:2e:6f:98:58:53:32:e7:a3:c1:ff:bb:
                    8e:7c:ac:b8:3b:03:2e:af:d4:5c:5f:9b:f4:ea:8e:
                    10:a9:e9:cd:45:4c:d1:bd:71:92:2c:91:5b:2f:bd:
                    f3:cd:af:78:fd:41:cb:44:e2:40:82:35:1a:8f:25:
                    9b:82:16:7e:b3:09:2c:d2:d1:7d:30:9c:7d:fa:e2:
                    3c:16:44:ca:77:c3:32:2a:1d:c4:ad:37:d6:c5:6f:
                    bf:6c:3a:46:64:21:b3:02:75:c0:bc:06:62:43:59:
                    83:32:d0:02:4d:5e:94:d0:ea:d8:d6:af:7d:76:6d:
                    4e:de:2d:d4:b9:37:34:a6:8f:98:a0:77:58:1b:b0:
                    10:05:e1:c9:3f:3d:e2:95:d5:f3:9f:7a:ab:28:e6:
                    24:97:f0:de:5a:90:70:c9:da:32:6a:6a:9d:72:a6:
                    9f:c5:26:e1:ef:9b:52:be:d6:b7:b8:7a:13:1d:e8:
                    af:73:10:09:3d:9d:01:f4:94:87:d5:3f:65:2e:35:
                    f8:a5
                Exponent: 65537 (0x10001)
        X509v3 extensions:
            X509v3 Basic Constraints: 
                CA:FALSE
            Netscape Cert Type: 
                SSL Client
            X509v3 Key Usage: 
                Digital Signature
            X509v3 Extended Key Usage: 
                TLS Web Client Authentication
            X509v3 Subject Key Identifier: 
                04:93:62:AA:2F:0E:6B:24:52:63:C1:BA:F6:95:B9:5D:57:BB:7A:70
            X509v3 Authority Key Identifier: 
                keyid:62:1E:04:9A:97:BD:40:30:BF:C6:24:BD:9D:5C:9C:FB:EF:21:CB:E2

            X509v3 Subject Alternative Name: 
                email:hostmaster@acme.sw
    Signature Algorithm: sha256WithRSAEncryption
         8e:9d:91:25:ea:57:17:61:80:a0:69:56:44:41:15:2b:3b:20:
         18:f9:7a:a9:c1:03:16:e2:cc:c3:1e:1b:a7:b1:de:12:1a:36:
         06:f7:15:e8:dc:c4:cb:12:77:e9:94:3b:d3:3c:57:5a:46:f6:
         88:98:48:85:99:ce:7c:43:80:0a:93:dd:f6:06:1a:d0:32:66:
         11:55:d4:1c:73:40:27:0d:34:97:d8:9b:88:b0:65:fc:74:99:
         39:54:ff:7b:79:07:79:91:fb:7c:18:c8:e3:de:15:cb:21:6a:
         1a:01:50:f1:97:2b:a6:a0:55:93:d3:86:ac:e7:91:3e:51:23:
         d5:6d:78:24:67:95:ab:44:26:f1:a8:46:1b:c7:36:d3:cd:b0:
         19:a8:a0:94:c0:b9:ab:7e:da:50:b1:6d:62:5f:c0:fc:23:6d:
         b8:c5:85:bf:55:09:05:d4:57:a1:09:e2:55:b4:6d:93:44:0f:
         cb:c7:cb:e2:d2:9f:fd:91:20:94:4d:1c:0c:e8:1a:a7:be:69:
         4e:49:a7:59:60:f0:22:bc:f7:e0:18:8e:f1:ea:bf:f7:1e:74:
         de:4f:b0:96:bd:73:ee:32:0c:f8:12:3e:d7:b6:9a:6e:dd:ac:
         89:e1:3d:c3:15:e5:e0:05:fc:53:70:64:6f:35:39:3f:91:55:
         59:99:03:83
-----BEGIN CERTIFICATE-----
MIIDxzCCAq+gAwIBAgIJAKm69EzPysjCMA0GCSqGSIb3DQEBCwUAMEoxCzAJBgNV
BAYTAlNXMRIwEAYDVQQHDAlTdG9ja2hvbG0xDTALBgNVBAoMBEFDTUUxGDAWBgNV
BAMMD09wZW5WUE4tQUNNRS1DQTAeFw0xNjAzMDMxMzA2NDNaFw0xNjAzMDQxMzA2
NDNaMFcxCzAJBgNVBAYTAlNXMRIwEAYDVQQHDAlTdG9ja2hvbG0xDTALBgNVBAoM
BEFDTUUxJTAjBgNVBAMMHHRlbXBvcmFsX2NlcnRpZmljYXRlLmFjbWUuc3cwggEi
MA0GCSqGSIb3DQEBAQUAA4IBDwAwggEKAoIBAQCt3rfB2TO1k0QgRvrplsA8Ac0v
m6CePB9ky12VIqR9Of3XZksCKe6fF71xMxlDzK5ZF2wD2Y1Pue7FQZjyFCQub5hY
UzLno8H/u458rLg7Ay6v1Fxfm/TqjhCp6c1FTNG9cZIskVsvvfPNr3j9QctE4kCC
NRqPJZuCFn6zCSzS0X0wnH364jwWRMp3wzIqHcStN9bFb79sOkZkIbMCdcC8BmJD
WYMy0AJNXpTQ6tjWr312bU7eLdS5NzSmj5igd1gbsBAF4ck/PeKV1fOfeqso5iSX
8N5akHDJ2jJqap1ypp/FJuHvm1K+1re4ehMd6K9zEAk9nQH0lIfVP2UuNfilAgMB
AAGjgaIwgZ8wCQYDVR0TBAIwADARBglghkgBhvhCAQEEBAMCB4AwCwYDVR0PBAQD
AgeAMBMGA1UdJQQMMAoGCCsGAQUFBwMCMB0GA1UdDgQWBBQEk2KqLw5rJFJjwbr2
lbldV7t6cDAfBgNVHSMEGDAWgBRiHgSal71AML/GJL2dXJz77yHL4jAdBgNVHREE
FjAUgRJob3N0bWFzdGVyQGFjbWUuc3cwDQYJKoZIhvcNAQELBQADggEBAI6dkSXq
VxdhgKBpVkRBFSs7IBj5eqnBAxbizMMeG6ex3hIaNgb3FejcxMsSd+mUO9M8V1pG
9oiYSIWZznxDgAqT3fYGGtAyZhFV1BxzQCcNNJfYm4iwZfx0mTlU/3t5B3mR+3wY
yOPeFcshahoBUPGXK6agVZPThqznkT5RI9VteCRnlatEJvGoRhvHNtPNsBmooJTA
uat+2lCxbWJfwPwjbbjFhb9VCQXUV6EJ4lW0bZNED8vHy+LSn/2RIJRNHAzoGqe+
aU5Jp1lg8CK89+AYjvHqv/cedN5PsJa9c+4yDPgSPte2mm7drInhPcMV5eAF/FNw
ZG81OT+RVVmZA4M=
-----END CERTIFICATE-----
