Certificate:
    Data:
        Version: 3 (0x2)
        Serial Number:
            a9:ba:f4:4c:cf:ca:c8:af
    Signature Algorithm: sha256WithRSAEncryption
        Issuer: C=SW, L=Stockholm, O=ACME, CN=OpenVPN-ACME-CA
        Validity
            Not Before: Mar  3 12:47:44 2016 GMT
            Not After : Mar  4 12:47:44 2016 GMT
        Subject: C=SW, L=Stockholm, O=ACME, CN=temporal_certificate.acme.sw
        Subject Public Key Info:
            Public Key Algorithm: rsaEncryption
                Public-Key: (2048 bit)
                Modulus:
                    00:c4:d4:c0:d9:1d:34:3c:43:5e:08:cc:72:08:7a:
                    66:6b:5d:55:cc:7d:4a:f1:d8:1e:14:6e:6a:f1:57:
                    84:96:96:68:c2:09:db:34:ad:4f:eb:db:11:48:da:
                    ab:bb:a8:18:01:04:55:13:9d:d1:b3:b4:3f:d0:46:
                    9f:a5:a2:05:33:fc:22:24:9a:98:ff:8f:d9:f6:cf:
                    d4:db:87:02:b8:ce:0a:f9:e1:fb:fe:59:11:43:2d:
                    51:0c:38:1d:4c:38:37:b8:b1:76:bb:ff:48:2d:d7:
                    f2:1c:57:8f:ce:de:97:e0:da:55:89:38:dc:05:b8:
                    7f:b0:e8:14:62:b1:40:e7:af:66:bf:b2:2d:14:1c:
                    08:90:15:cd:f6:0c:7a:ac:9c:e1:a6:ec:4a:41:7e:
                    21:96:e8:1d:28:4d:a7:98:66:1e:2c:42:7e:64:ac:
                    f6:e7:da:50:14:92:af:79:b2:54:ec:4b:c7:70:59:
                    17:8e:58:dc:d8:26:67:03:c9:ce:eb:0d:c3:7b:95:
                    5d:bf:b5:84:90:8a:23:07:2a:81:e3:bc:17:11:52:
                    ad:95:cd:2a:e6:b6:07:39:d4:46:59:e1:e5:34:97:
                    34:17:af:bd:41:bf:d6:8a:2d:11:2c:aa:4a:aa:07:
                    3d:ef:19:75:4c:bd:6a:ea:f0:5e:f7:3a:65:99:f3:
                    cf:73
                Exponent: 65537 (0x10001)
        X509v3 extensions:
            X509v3 Basic Constraints: 
                CA:FALSE
            Netscape Cert Type: 
                SSL Client
            X509v3 Key Usage: 
                Digital Signature
            X509v3 Extended Key Usage: 
                TLS Web Client Authentication
            X509v3 Subject Key Identifier: 
                59:CD:0E:CE:60:C5:51:B8:BC:9B:A4:47:83:C9:B4:26:18:91:87:A9
            X509v3 Authority Key Identifier: 
                keyid:62:1E:04:9A:97:BD:40:30:BF:C6:24:BD:9D:5C:9C:FB:EF:21:CB:E2

            X509v3 Subject Alternative Name: 
                email:hostmaster@acme.sw
    Signature Algorithm: sha256WithRSAEncryption
         0a:4e:5b:cc:73:d8:c1:17:a6:33:ec:b8:62:7b:5d:ae:76:0a:
         8d:c3:5b:30:a4:2d:70:db:a4:59:ec:f3:87:36:0e:11:7b:0d:
         8d:5b:64:d9:f2:92:9e:fd:29:ff:23:40:b0:90:fd:38:97:66:
         3e:4d:3d:cb:2c:5d:f5:c0:a8:d4:0d:bb:92:a0:71:d7:5b:98:
         dc:ea:53:e5:b2:5d:e5:19:c4:af:d4:f7:4f:ce:b8:96:61:37:
         64:55:2a:ce:3d:81:40:a6:7b:f8:97:3c:97:78:02:c1:09:95:
         7f:ed:e7:57:a2:82:be:2c:73:52:11:07:ca:d1:90:64:fc:2c:
         c5:3f:33:45:72:cd:92:a1:f2:a4:ce:cb:39:6c:bf:94:16:79:
         aa:a9:62:27:cc:48:74:e3:2c:c1:b7:41:15:c3:50:62:71:60:
         a5:82:fc:be:89:d8:3d:68:74:f0:54:47:59:a3:9b:57:ed:47:
         e1:8a:e9:12:70:fd:85:89:3a:68:bc:e8:78:39:7d:a5:de:ce:
         8e:8e:85:de:27:3b:2a:be:4d:eb:5b:79:91:fa:12:1d:54:79:
         40:9d:b8:4a:af:66:c3:1a:eb:07:94:97:8b:65:6b:f1:4f:87:
         15:ab:7f:b6:97:b0:77:a0:c9:4d:df:64:61:5b:4d:10:d2:10:
         6f:15:09:95
-----BEGIN CERTIFICATE-----
MIIDxzCCAq+gAwIBAgIJAKm69EzPysivMA0GCSqGSIb3DQEBCwUAMEoxCzAJBgNV
BAYTAlNXMRIwEAYDVQQHDAlTdG9ja2hvbG0xDTALBgNVBAoMBEFDTUUxGDAWBgNV
BAMMD09wZW5WUE4tQUNNRS1DQTAeFw0xNjAzMDMxMjQ3NDRaFw0xNjAzMDQxMjQ3
NDRaMFcxCzAJBgNVBAYTAlNXMRIwEAYDVQQHDAlTdG9ja2hvbG0xDTALBgNVBAoM
BEFDTUUxJTAjBgNVBAMMHHRlbXBvcmFsX2NlcnRpZmljYXRlLmFjbWUuc3cwggEi
MA0GCSqGSIb3DQEBAQUAA4IBDwAwggEKAoIBAQDE1MDZHTQ8Q14IzHIIemZrXVXM
fUrx2B4UbmrxV4SWlmjCCds0rU/r2xFI2qu7qBgBBFUTndGztD/QRp+logUz/CIk
mpj/j9n2z9TbhwK4zgr54fv+WRFDLVEMOB1MODe4sXa7/0gt1/IcV4/O3pfg2lWJ
ONwFuH+w6BRisUDnr2a/si0UHAiQFc32DHqsnOGm7EpBfiGW6B0oTaeYZh4sQn5k
rPbn2lAUkq95slTsS8dwWReOWNzYJmcDyc7rDcN7lV2/tYSQiiMHKoHjvBcRUq2V
zSrmtgc51EZZ4eU0lzQXr71Bv9aKLREsqkqqBz3vGXVMvWrq8F73OmWZ889zAgMB
AAGjgaIwgZ8wCQYDVR0TBAIwADARBglghkgBhvhCAQEEBAMCB4AwCwYDVR0PBAQD
AgeAMBMGA1UdJQQMMAoGCCsGAQUFBwMCMB0GA1UdDgQWBBRZzQ7OYMVRuLybpEeD
ybQmGJGHqTAfBgNVHSMEGDAWgBRiHgSal71AML/GJL2dXJz77yHL4jAdBgNVHREE
FjAUgRJob3N0bWFzdGVyQGFjbWUuc3cwDQYJKoZIhvcNAQELBQADggEBAApOW8xz
2MEXpjPsuGJ7Xa52Co3DWzCkLXDbpFns84c2DhF7DY1bZNnykp79Kf8jQLCQ/TiX
Zj5NPcssXfXAqNQNu5KgcddbmNzqU+WyXeUZxK/U90/OuJZhN2RVKs49gUCme/iX
PJd4AsEJlX/t51eigr4sc1IRB8rRkGT8LMU/M0VyzZKh8qTOyzlsv5QWeaqpYifM
SHTjLMG3QRXDUGJxYKWC/L6J2D1odPBUR1mjm1ftR+GK6RJw/YWJOmi86Hg5faXe
zo6Ohd4nOyq+TetbeZH6Eh1UeUCduEqvZsMa6weUl4tla/FPhxWrf7aXsHegyU3f
ZGFbTRDSEG8VCZU=
-----END CERTIFICATE-----
