Certificate:
    Data:
        Version: 3 (0x2)
        Serial Number:
            a9:ba:f4:4c:cf:ca:c8:9b
    Signature Algorithm: sha256WithRSAEncryption
        Issuer: C=SW, L=Stockholm, O=ACME, CN=OpenVPN-ACME-CA
        Validity
            Not Before: Mar  2 18:11:34 2016 GMT
            Not After : Mar  3 18:11:34 2016 GMT
        Subject: C=SW, L=Stockholm, O=ACME, CN=pepe.acme.sw
        Subject Public Key Info:
            Public Key Algorithm: rsaEncryption
                Public-Key: (2048 bit)
                Modulus:
                    00:dc:6c:a4:2f:f6:6d:a4:ce:5b:e5:dc:66:4c:bd:
                    d1:81:be:49:13:5d:79:b9:53:48:65:da:46:a0:02:
                    0e:da:57:0a:3a:55:2b:6f:38:0a:5b:06:da:54:71:
                    12:1d:20:17:f5:5a:90:f8:31:b5:1a:ce:df:af:0e:
                    2c:2e:4f:ba:18:d2:6b:6a:23:58:98:3c:ec:88:ff:
                    57:cc:e1:e9:35:c5:9a:9e:04:f0:d4:9b:8a:87:f0:
                    1b:94:60:0e:2c:ae:d4:48:38:af:18:15:d3:86:6e:
                    16:1c:35:72:40:e5:2d:96:d5:1d:f0:be:c5:f5:d7:
                    eb:c2:cd:b3:a8:5b:45:89:be:27:c7:a1:78:d8:fc:
                    84:08:04:df:1f:15:66:8d:5d:ed:d2:f5:c3:3b:5a:
                    5a:5b:d1:49:78:54:1f:28:b6:a8:64:f7:c9:b8:b9:
                    93:9c:c8:e4:5d:52:c3:e8:bb:07:fb:2b:fd:2d:c5:
                    fc:62:b6:f2:8a:f1:13:21:83:df:2d:1f:2c:34:d4:
                    0e:9b:02:46:d0:ca:b6:fb:ee:c2:72:a9:44:8c:d6:
                    b0:13:f2:31:a6:5b:ff:5e:73:63:ab:c4:45:bf:a2:
                    43:b3:1b:63:16:90:e5:d9:52:cb:61:a7:3b:6b:d4:
                    23:b0:9c:0a:f6:5a:13:38:4e:a5:2c:4e:de:54:cb:
                    ed:39
                Exponent: 65537 (0x10001)
        X509v3 extensions:
            X509v3 Basic Constraints: 
                CA:FALSE
            Netscape Cert Type: 
                SSL Client
            X509v3 Key Usage: 
                Digital Signature
            X509v3 Extended Key Usage: 
                TLS Web Client Authentication
            X509v3 Subject Key Identifier: 
                9E:90:B4:8B:79:4A:67:22:16:72:5D:27:D7:5E:8C:8D:F6:E2:F8:22
            X509v3 Authority Key Identifier: 
                keyid:62:1E:04:9A:97:BD:40:30:BF:C6:24:BD:9D:5C:9C:FB:EF:21:CB:E2

            X509v3 Subject Alternative Name: 
                email:hostmaster@acme.sw
    Signature Algorithm: sha256WithRSAEncryption
         bb:70:7a:68:74:a1:aa:9c:be:96:f7:55:2f:1b:b0:29:42:5c:
         85:f8:48:24:f2:5a:83:6e:42:3e:e3:4a:f6:dc:b1:ff:f1:da:
         a7:2d:9f:bb:a4:fc:49:0a:e1:36:aa:4c:14:14:80:dc:42:ab:
         fb:d6:68:28:21:ef:01:80:ef:fa:bf:24:62:25:9d:07:ba:cb:
         71:e9:bd:56:34:b2:f7:a2:73:9d:e9:71:ff:72:69:29:19:7a:
         75:c4:98:9b:2c:1a:cb:25:c6:d4:33:75:69:de:b2:3f:6a:bf:
         0c:8a:6a:ca:e4:88:b1:89:fa:b4:e8:e2:e7:7d:cd:40:27:91:
         a6:d1:4d:b0:39:40:b0:ad:63:bd:29:ed:41:8c:8b:ad:97:4e:
         fe:bb:bd:c6:a3:7e:5f:f7:24:7a:87:91:3f:8a:e5:22:49:05:
         cd:4c:ff:1c:77:ff:5c:ae:b4:a5:d9:61:27:41:01:bb:36:c7:
         2e:8f:47:fb:35:79:64:d7:02:83:e0:fe:ec:d3:5e:a4:07:0c:
         09:f3:61:88:cb:54:1b:43:b0:6e:6b:63:33:c7:24:92:d4:32:
         14:b1:e3:e0:24:a7:d3:d3:c7:de:96:13:d5:1f:e4:b6:a9:65:
         66:10:8d:af:a7:54:9e:8a:0c:88:84:03:03:19:3c:76:02:44:
         26:86:d0:6c
-----BEGIN CERTIFICATE-----
MIIDtzCCAp+gAwIBAgIJAKm69EzPysibMA0GCSqGSIb3DQEBCwUAMEoxCzAJBgNV
BAYTAlNXMRIwEAYDVQQHDAlTdG9ja2hvbG0xDTALBgNVBAoMBEFDTUUxGDAWBgNV
BAMMD09wZW5WUE4tQUNNRS1DQTAeFw0xNjAzMDIxODExMzRaFw0xNjAzMDMxODEx
MzRaMEcxCzAJBgNVBAYTAlNXMRIwEAYDVQQHDAlTdG9ja2hvbG0xDTALBgNVBAoM
BEFDTUUxFTATBgNVBAMMDHBlcGUuYWNtZS5zdzCCASIwDQYJKoZIhvcNAQEBBQAD
ggEPADCCAQoCggEBANxspC/2baTOW+XcZky90YG+SRNdeblTSGXaRqACDtpXCjpV
K284ClsG2lRxEh0gF/VakPgxtRrO368OLC5PuhjSa2ojWJg87Ij/V8zh6TXFmp4E
8NSbiofwG5RgDiyu1Eg4rxgV04ZuFhw1ckDlLZbVHfC+xfXX68LNs6hbRYm+J8eh
eNj8hAgE3x8VZo1d7dL1wztaWlvRSXhUHyi2qGT3ybi5k5zI5F1Sw+i7B/sr/S3F
/GK28orxEyGD3y0fLDTUDpsCRtDKtvvuwnKpRIzWsBPyMaZb/15zY6vERb+iQ7Mb
YxaQ5dlSy2GnO2vUI7CcCvZaEzhOpSxO3lTL7TkCAwEAAaOBojCBnzAJBgNVHRME
AjAAMBEGCWCGSAGG+EIBAQQEAwIHgDALBgNVHQ8EBAMCB4AwEwYDVR0lBAwwCgYI
KwYBBQUHAwIwHQYDVR0OBBYEFJ6QtIt5SmciFnJdJ9dejI324vgiMB8GA1UdIwQY
MBaAFGIeBJqXvUAwv8YkvZ1cnPvvIcviMB0GA1UdEQQWMBSBEmhvc3RtYXN0ZXJA
YWNtZS5zdzANBgkqhkiG9w0BAQsFAAOCAQEAu3B6aHShqpy+lvdVLxuwKUJchfhI
JPJag25CPuNK9tyx//Hapy2fu6T8SQrhNqpMFBSA3EKr+9ZoKCHvAYDv+r8kYiWd
B7rLcem9VjSy96Jznelx/3JpKRl6dcSYmywayyXG1DN1ad6yP2q/DIpqyuSIsYn6
tOji533NQCeRptFNsDlAsK1jvSntQYyLrZdO/ru9xqN+X/ckeoeRP4rlIkkFzUz/
HHf/XK60pdlhJ0EBuzbHLo9H+zV5ZNcCg+D+7NNepAcMCfNhiMtUG0OwbmtjM8ck
ktQyFLHj4CSn09PH3pYT1R/ktqllZhCNr6dUnooMiIQDAxk8dgJEJobQbA==
-----END CERTIFICATE-----
