Certificate:
    Data:
        Version: 3 (0x2)
        Serial Number:
            a9:ba:f4:4c:cf:ca:c8:a2
    Signature Algorithm: sha256WithRSAEncryption
        Issuer: C=SW, L=Stockholm, O=ACME, CN=OpenVPN-ACME-CA
        Validity
            Not Before: Mar  2 18:26:45 2016 GMT
            Not After : Mar  3 18:26:45 2016 GMT
        Subject: C=SW, L=Stockholm, O=ACME, CN=temp.acme.sw
        Subject Public Key Info:
            Public Key Algorithm: rsaEncryption
                Public-Key: (2048 bit)
                Modulus:
                    00:bd:65:90:dc:b3:94:20:c8:f9:66:a9:51:4c:ed:
                    01:27:e4:13:7b:51:ab:2f:06:f5:fd:01:ee:93:a3:
                    a8:7b:56:57:35:be:62:36:c1:32:dc:a4:92:50:2d:
                    9c:49:8e:6c:a1:31:df:9c:8c:37:4d:82:d8:ba:9f:
                    31:07:63:33:35:1f:b9:d6:3c:1b:49:e1:2d:15:fc:
                    76:ee:d4:7a:93:fc:b8:d1:d5:28:7b:42:d6:e3:50:
                    b8:eb:43:12:0f:e2:ea:9b:0c:53:07:ae:af:83:1e:
                    3f:f6:b5:aa:9b:68:6b:d1:e9:7d:bc:c6:ad:3f:5b:
                    4b:6c:33:41:66:6a:17:da:68:05:89:97:7a:2e:84:
                    56:ce:09:20:ec:04:06:9a:79:54:ec:45:e8:01:d5:
                    dc:c1:9c:8b:7d:c7:4a:40:31:a2:f3:cd:b7:0a:71:
                    c6:85:66:69:2f:a4:53:de:0d:ae:61:9b:db:69:4d:
                    cc:ee:6a:a4:e6:4a:31:98:74:71:da:5d:4f:b8:7c:
                    64:b7:47:a5:fa:5f:89:31:0c:93:d4:d5:b6:5c:ea:
                    d2:66:83:08:86:8d:1c:cd:81:d0:fa:3e:51:65:f1:
                    00:0e:6d:59:ae:81:b1:3b:03:83:10:ee:8a:00:ab:
                    62:10:8a:8e:3c:4e:29:e7:2e:1c:67:97:df:16:7f:
                    fc:d9
                Exponent: 65537 (0x10001)
        X509v3 extensions:
            X509v3 Basic Constraints: 
                CA:FALSE
            Netscape Cert Type: 
                SSL Client
            X509v3 Key Usage: 
                Digital Signature
            X509v3 Extended Key Usage: 
                TLS Web Client Authentication
            X509v3 Subject Key Identifier: 
                F6:CF:63:10:CD:B4:35:0D:9D:94:65:EE:FE:FF:77:3B:06:88:42:15
            X509v3 Authority Key Identifier: 
                keyid:62:1E:04:9A:97:BD:40:30:BF:C6:24:BD:9D:5C:9C:FB:EF:21:CB:E2

            X509v3 Subject Alternative Name: 
                email:hostmaster@acme.sw
    Signature Algorithm: sha256WithRSAEncryption
         0a:85:6c:3a:59:7e:d3:63:8c:3f:14:1e:ce:f4:67:d6:cc:09:
         9e:f9:fc:23:ed:2e:2c:ec:8a:e7:f6:bd:bd:da:5b:4e:b5:10:
         2c:14:c4:85:20:1b:94:b2:e0:5a:85:ac:ef:b9:f3:c5:92:08:
         3f:f4:bf:f0:d7:b6:05:b7:59:20:af:c3:1a:13:30:a6:5e:f9:
         12:fa:da:0a:6c:5c:3b:4e:dd:0a:f2:a9:94:bb:49:20:f3:e2:
         dd:c0:29:79:2b:40:d4:f0:04:6c:ec:d1:28:24:8f:a3:3b:5b:
         99:fa:5c:85:30:9a:04:58:3b:32:cf:e8:53:e0:34:03:23:46:
         0c:83:c9:1f:97:3b:60:27:99:ce:80:e3:0c:11:1e:73:ee:cc:
         22:de:7f:11:3d:1f:5c:18:cb:0a:bf:01:2a:45:f0:8a:1d:f9:
         11:1f:80:92:81:bd:76:d6:b2:b6:db:8f:a4:7d:2c:fd:d3:3b:
         d9:ba:dc:e8:c4:c4:c9:cc:9c:9e:c4:5c:94:5e:87:f2:84:b6:
         cc:a9:fc:ce:c0:35:09:02:4b:24:1d:d0:c0:60:0a:24:b9:ba:
         b1:1d:ca:1d:04:03:5d:5b:a1:d0:ce:30:71:2c:32:36:1c:c2:
         89:e9:e4:23:a2:a0:23:67:4e:10:26:89:c5:a0:fa:66:28:aa:
         76:bb:d2:25
-----BEGIN CERTIFICATE-----
MIIDtzCCAp+gAwIBAgIJAKm69EzPysiiMA0GCSqGSIb3DQEBCwUAMEoxCzAJBgNV
BAYTAlNXMRIwEAYDVQQHDAlTdG9ja2hvbG0xDTALBgNVBAoMBEFDTUUxGDAWBgNV
BAMMD09wZW5WUE4tQUNNRS1DQTAeFw0xNjAzMDIxODI2NDVaFw0xNjAzMDMxODI2
NDVaMEcxCzAJBgNVBAYTAlNXMRIwEAYDVQQHDAlTdG9ja2hvbG0xDTALBgNVBAoM
BEFDTUUxFTATBgNVBAMMDHRlbXAuYWNtZS5zdzCCASIwDQYJKoZIhvcNAQEBBQAD
ggEPADCCAQoCggEBAL1lkNyzlCDI+WapUUztASfkE3tRqy8G9f0B7pOjqHtWVzW+
YjbBMtykklAtnEmObKEx35yMN02C2LqfMQdjMzUfudY8G0nhLRX8du7UepP8uNHV
KHtC1uNQuOtDEg/i6psMUweur4MeP/a1qptoa9HpfbzGrT9bS2wzQWZqF9poBYmX
ei6EVs4JIOwEBpp5VOxF6AHV3MGci33HSkAxovPNtwpxxoVmaS+kU94NrmGb22lN
zO5qpOZKMZh0cdpdT7h8ZLdHpfpfiTEMk9TVtlzq0maDCIaNHM2B0Po+UWXxAA5t
Wa6BsTsDgxDuigCrYhCKjjxOKecuHGeX3xZ//NkCAwEAAaOBojCBnzAJBgNVHRME
AjAAMBEGCWCGSAGG+EIBAQQEAwIHgDALBgNVHQ8EBAMCB4AwEwYDVR0lBAwwCgYI
KwYBBQUHAwIwHQYDVR0OBBYEFPbPYxDNtDUNnZRl7v7/dzsGiEIVMB8GA1UdIwQY
MBaAFGIeBJqXvUAwv8YkvZ1cnPvvIcviMB0GA1UdEQQWMBSBEmhvc3RtYXN0ZXJA
YWNtZS5zdzANBgkqhkiG9w0BAQsFAAOCAQEACoVsOll+02OMPxQezvRn1swJnvn8
I+0uLOyK5/a9vdpbTrUQLBTEhSAblLLgWoWs77nzxZIIP/S/8Ne2BbdZIK/DGhMw
pl75EvraCmxcO07dCvKplLtJIPPi3cApeStA1PAEbOzRKCSPoztbmfpchTCaBFg7
Ms/oU+A0AyNGDIPJH5c7YCeZzoDjDBEec+7MIt5/ET0fXBjLCr8BKkXwih35ER+A
koG9dtayttuPpH0s/dM72brc6MTEycycnsRclF6H8oS2zKn8zsA1CQJLJB3QwGAK
JLm6sR3KHQQDXVuh0M4wcSwyNhzCienkI6KgI2dOECaJxaD6ZiiqdrvSJQ==
-----END CERTIFICATE-----
