Certificate:
    Data:
        Version: 3 (0x2)
        Serial Number:
            a9:ba:f4:4c:cf:ca:c8:99
    Signature Algorithm: sha256WithRSAEncryption
        Issuer: C=SW, L=Stockholm, O=ACME, CN=OpenVPN-ACME-CA
        Validity
            Not Before: Mar  2 17:31:37 2016 GMT
            Not After : Feb 28 17:31:37 2026 GMT
        Subject: C=SW, L=Stockholm, O=ACME, CN=OpenVPN-ACME-CA
        Subject Public Key Info:
            Public Key Algorithm: rsaEncryption
                Public-Key: (2048 bit)
                Modulus:
                    00:c5:2c:bb:e1:03:2d:35:c6:cd:be:f5:1b:60:47:
                    57:0a:64:ef:fc:56:28:92:f7:a0:78:b9:aa:14:de:
                    75:b3:45:80:6c:98:14:4a:b5:bc:fe:ea:06:17:d9:
                    a3:7e:ae:5d:e1:3e:1d:95:50:62:0d:db:4a:d8:73:
                    3c:8e:79:be:c8:2a:0e:99:28:96:c2:f7:71:48:c0:
                    3a:20:e7:ae:61:0a:c1:6b:40:b0:c9:18:01:55:7e:
                    84:7b:d7:b0:1c:f9:4b:ec:83:fe:e0:cf:2a:5f:87:
                    71:15:a8:9e:10:91:a6:9d:d4:47:49:e1:c9:d2:18:
                    7e:c9:f1:17:0d:f6:a0:21:d4:92:f5:5c:3a:b9:a2:
                    d0:53:c1:bf:56:f8:36:8a:85:8c:05:2c:ae:02:a5:
                    5a:46:38:37:66:c5:96:06:08:04:e0:8a:15:c1:d7:
                    65:ba:e7:5d:9b:e4:b7:ff:8f:6a:3a:74:5a:46:62:
                    e6:06:0c:81:ed:1e:0c:1f:94:9d:d7:a1:d4:04:dd:
                    52:80:7b:de:bd:1c:b9:13:cd:a3:7a:bb:75:b4:32:
                    a5:25:c2:17:15:88:59:54:28:ae:8a:30:c4:a6:0a:
                    f7:3e:ce:83:e6:66:5b:7e:4a:d2:94:12:c8:fc:2b:
                    df:dd:6a:73:1b:c4:d0:16:38:15:7f:15:e4:14:c6:
                    06:b3
                Exponent: 65537 (0x10001)
        X509v3 extensions:
            X509v3 Basic Constraints: 
                CA:TRUE
            Netscape Cert Type: 
                SSL CA
            X509v3 Key Usage: 
                Certificate Sign, CRL Sign
            X509v3 Subject Key Identifier: 
                62:1E:04:9A:97:BD:40:30:BF:C6:24:BD:9D:5C:9C:FB:EF:21:CB:E2
            X509v3 Authority Key Identifier: 
                keyid:62:1E:04:9A:97:BD:40:30:BF:C6:24:BD:9D:5C:9C:FB:EF:21:CB:E2
                DirName:/C=SW/L=Stockholm/O=ACME/CN=OpenVPN-ACME-CA
                serial:A9:BA:F4:4C:CF:CA:C8:99

            X509v3 Subject Alternative Name: 
                email:hostmaster@acme.sw
    Signature Algorithm: sha256WithRSAEncryption
         61:8c:15:18:83:09:3b:f6:95:13:22:c7:f0:31:6b:62:5f:42:
         3c:4b:d3:ac:2e:ef:b8:e2:73:9e:d6:22:b4:ee:c5:8e:62:fa:
         4a:2e:87:56:d9:a9:70:cd:95:d2:2f:8c:0b:77:80:27:d7:2c:
         fc:68:97:3d:8d:46:27:a9:5f:ec:fa:0c:b6:f6:df:c4:ae:4f:
         d0:ca:3b:85:10:6d:d5:81:0a:da:b9:bf:13:26:bc:14:bb:4f:
         39:7e:53:34:5c:0f:67:63:a9:60:3d:93:b6:44:89:f4:6c:e5:
         f0:a9:b3:08:a2:17:c0:24:3d:11:97:12:04:cc:f2:b2:f1:52:
         30:f7:e4:62:6f:15:6f:9b:04:07:4e:86:20:28:7b:81:a8:52:
         a4:96:f2:a8:74:5f:21:3d:22:e2:da:c3:27:10:04:ac:e1:e6:
         db:db:b3:84:b6:d5:9a:24:28:38:61:a9:8a:f3:11:e8:85:4d:
         28:0f:51:f3:c2:2b:0d:e4:ba:ef:09:71:28:19:c9:72:7e:c4:
         e9:18:30:1b:0a:7f:24:bf:5c:12:79:e8:31:5e:ae:6b:b3:92:
         35:bb:95:ff:e2:81:6c:6f:0a:98:43:d0:a9:96:5d:16:97:fc:
         38:af:db:f3:da:1d:a5:92:c2:0c:cb:15:ac:3c:71:fd:1a:58:
         2f:be:05:c3
-----BEGIN CERTIFICATE-----
MIIEAzCCAuugAwIBAgIJAKm69EzPysiZMA0GCSqGSIb3DQEBCwUAMEoxCzAJBgNV
BAYTAlNXMRIwEAYDVQQHDAlTdG9ja2hvbG0xDTALBgNVBAoMBEFDTUUxGDAWBgNV
BAMMD09wZW5WUE4tQUNNRS1DQTAeFw0xNjAzMDIxNzMxMzdaFw0yNjAyMjgxNzMx
MzdaMEoxCzAJBgNVBAYTAlNXMRIwEAYDVQQHDAlTdG9ja2hvbG0xDTALBgNVBAoM
BEFDTUUxGDAWBgNVBAMMD09wZW5WUE4tQUNNRS1DQTCCASIwDQYJKoZIhvcNAQEB
BQADggEPADCCAQoCggEBAMUsu+EDLTXGzb71G2BHVwpk7/xWKJL3oHi5qhTedbNF
gGyYFEq1vP7qBhfZo36uXeE+HZVQYg3bSthzPI55vsgqDpkolsL3cUjAOiDnrmEK
wWtAsMkYAVV+hHvXsBz5S+yD/uDPKl+HcRWonhCRpp3UR0nhydIYfsnxFw32oCHU
kvVcOrmi0FPBv1b4NoqFjAUsrgKlWkY4N2bFlgYIBOCKFcHXZbrnXZvkt/+Pajp0
WkZi5gYMge0eDB+Undeh1ATdUoB73r0cuRPNo3q7dbQypSXCFxWIWVQoroowxKYK
9z7Og+ZmW35K0pQSyPwr391qcxvE0BY4FX8V5BTGBrMCAwEAAaOB6zCB6DAMBgNV
HRMEBTADAQH/MBEGCWCGSAGG+EIBAQQEAwICBDALBgNVHQ8EBAMCAQYwHQYDVR0O
BBYEFGIeBJqXvUAwv8YkvZ1cnPvvIcviMHoGA1UdIwRzMHGAFGIeBJqXvUAwv8Yk
vZ1cnPvvIcvioU6kTDBKMQswCQYDVQQGEwJTVzESMBAGA1UEBwwJU3RvY2tob2xt
MQ0wCwYDVQQKDARBQ01FMRgwFgYDVQQDDA9PcGVuVlBOLUFDTUUtQ0GCCQCpuvRM
z8rImTAdBgNVHREEFjAUgRJob3N0bWFzdGVyQGFjbWUuc3cwDQYJKoZIhvcNAQEL
BQADggEBAGGMFRiDCTv2lRMix/Axa2JfQjxL06wu77jic57WIrTuxY5i+kouh1bZ
qXDNldIvjAt3gCfXLPxolz2NRiepX+z6DLb238SuT9DKO4UQbdWBCtq5vxMmvBS7
Tzl+UzRcD2djqWA9k7ZEifRs5fCpswiiF8AkPRGXEgTM8rLxUjD35GJvFW+bBAdO
hiAoe4GoUqSW8qh0XyE9IuLawycQBKzh5tvbs4S21ZokKDhhqYrzEeiFTSgPUfPC
Kw3kuu8JcSgZyXJ+xOkYMBsKfyS/XBJ56DFermuzkjW7lf/igWxvCphD0KmWXRaX
/Div2/PaHaWSwgzLFaw8cf0aWC++BcM=
-----END CERTIFICATE-----
