Certificate:
    Data:
        Version: 3 (0x2)
        Serial Number:
            a9:ba:f4:4c:cf:ca:c8:9d
    Signature Algorithm: sha256WithRSAEncryption
        Issuer: C=SW, L=Stockholm, O=ACME, CN=OpenVPN-ACME-CA
        Validity
            Not Before: Mar  2 18:17:23 2016 GMT
            Not After : Mar  3 18:17:23 2016 GMT
        Subject: C=SW, L=Stockholm, O=ACME, CN=temp.acme.sw
        Subject Public Key Info:
            Public Key Algorithm: rsaEncryption
                Public-Key: (2048 bit)
                Modulus:
                    00:aa:d1:ff:74:a2:35:ee:8c:77:6c:df:0a:bb:08:
                    21:d3:be:38:1f:20:39:9a:dc:4d:2f:23:2f:bc:93:
                    22:f8:e2:00:18:d1:b9:43:2d:39:e3:41:d5:1c:bc:
                    ef:61:18:5d:df:a5:13:ef:fc:ce:9c:de:39:f7:46:
                    da:95:26:3a:3a:e0:b3:0a:ed:de:86:08:63:2a:df:
                    6f:27:0f:6d:74:be:43:8d:6f:c1:10:76:1f:99:84:
                    85:ef:38:c3:91:8f:2f:19:85:dc:33:9e:42:e0:79:
                    b8:b2:2a:d9:98:1f:f9:5b:74:2f:06:14:59:db:a7:
                    e0:4c:13:00:6a:c5:9b:d7:e7:c8:e4:a5:a5:5e:34:
                    ba:9c:a0:63:11:77:8e:92:b3:0a:72:b3:3c:66:3b:
                    10:25:85:e3:e4:4e:1e:39:2d:20:91:46:35:58:6e:
                    dd:5d:d0:44:8d:03:b7:63:85:bb:76:37:b5:b1:ce:
                    05:0b:84:2d:3d:b1:f1:c5:95:19:d3:20:d8:a0:3b:
                    10:5f:ee:61:81:f7:bd:ab:86:ed:85:92:25:ff:86:
                    ef:42:5f:14:76:52:e5:2b:8a:04:5d:7a:d3:10:c9:
                    12:86:32:e8:c3:25:4e:d2:81:8c:ca:86:e3:64:29:
                    90:81:ca:c1:3e:41:26:d3:62:21:da:fd:1f:09:72:
                    5a:51
                Exponent: 65537 (0x10001)
        X509v3 extensions:
            X509v3 Basic Constraints: 
                CA:FALSE
            Netscape Cert Type: 
                SSL Client
            X509v3 Key Usage: 
                Digital Signature
            X509v3 Extended Key Usage: 
                TLS Web Client Authentication
            X509v3 Subject Key Identifier: 
                97:8B:09:30:B9:A3:4A:96:D5:5C:5E:C0:28:7F:4A:26:32:C0:9A:9A
            X509v3 Authority Key Identifier: 
                keyid:62:1E:04:9A:97:BD:40:30:BF:C6:24:BD:9D:5C:9C:FB:EF:21:CB:E2

            X509v3 Subject Alternative Name: 
                email:hostmaster@acme.sw
    Signature Algorithm: sha256WithRSAEncryption
         6e:bd:21:64:c1:97:73:c1:81:2b:32:2c:33:13:1a:56:89:ea:
         d1:01:ef:62:42:88:af:46:56:b8:60:c6:ef:b4:fe:cb:f9:66:
         57:d0:a8:68:f5:97:aa:2c:60:32:c7:f1:d8:da:d9:8f:f0:9b:
         06:ee:34:e7:bf:47:80:74:d7:12:f8:56:16:41:6f:ac:08:fd:
         fa:7a:ea:71:bd:15:19:b1:6a:84:d2:97:60:fc:41:89:28:a6:
         02:88:3b:cf:9e:9e:6a:13:27:a2:68:cb:bf:50:cd:6e:a8:51:
         c0:03:e4:62:06:56:e3:d4:74:73:43:89:cb:97:0f:9e:8f:e4:
         67:c3:3e:4b:2a:c3:b4:6b:40:3a:f1:a6:9c:d9:9e:d3:3e:5f:
         9d:03:37:51:96:a4:54:c9:10:02:6b:be:ad:ac:c2:8b:43:c6:
         5d:c0:3c:6a:d2:cc:d1:0c:b1:2b:b5:89:9d:fe:0e:b7:c9:9c:
         98:d8:1f:a4:a9:0d:71:1e:14:4e:cc:3a:93:67:de:71:1c:48:
         a1:5b:fc:db:53:72:83:ab:e1:45:43:55:db:e5:72:d1:ad:c1:
         b2:ed:8a:87:98:9e:84:29:7e:f4:2e:7b:cf:04:ea:37:b9:ac:
         62:38:53:65:22:15:f6:1f:26:28:44:21:37:cc:82:f5:45:3a:
         95:79:a1:7b
-----BEGIN CERTIFICATE-----
MIIDtzCCAp+gAwIBAgIJAKm69EzPysidMA0GCSqGSIb3DQEBCwUAMEoxCzAJBgNV
BAYTAlNXMRIwEAYDVQQHDAlTdG9ja2hvbG0xDTALBgNVBAoMBEFDTUUxGDAWBgNV
BAMMD09wZW5WUE4tQUNNRS1DQTAeFw0xNjAzMDIxODE3MjNaFw0xNjAzMDMxODE3
MjNaMEcxCzAJBgNVBAYTAlNXMRIwEAYDVQQHDAlTdG9ja2hvbG0xDTALBgNVBAoM
BEFDTUUxFTATBgNVBAMMDHRlbXAuYWNtZS5zdzCCASIwDQYJKoZIhvcNAQEBBQAD
ggEPADCCAQoCggEBAKrR/3SiNe6Md2zfCrsIIdO+OB8gOZrcTS8jL7yTIvjiABjR
uUMtOeNB1Ry872EYXd+lE+/8zpzeOfdG2pUmOjrgswrt3oYIYyrfbycPbXS+Q41v
wRB2H5mEhe84w5GPLxmF3DOeQuB5uLIq2Zgf+Vt0LwYUWdun4EwTAGrFm9fnyOSl
pV40upygYxF3jpKzCnKzPGY7ECWF4+ROHjktIJFGNVhu3V3QRI0Dt2OFu3Y3tbHO
BQuELT2x8cWVGdMg2KA7EF/uYYH3vauG7YWSJf+G70JfFHZS5SuKBF160xDJEoYy
6MMlTtKBjMqG42QpkIHKwT5BJtNiIdr9HwlyWlECAwEAAaOBojCBnzAJBgNVHRME
AjAAMBEGCWCGSAGG+EIBAQQEAwIHgDALBgNVHQ8EBAMCB4AwEwYDVR0lBAwwCgYI
KwYBBQUHAwIwHQYDVR0OBBYEFJeLCTC5o0qW1VxewCh/SiYywJqaMB8GA1UdIwQY
MBaAFGIeBJqXvUAwv8YkvZ1cnPvvIcviMB0GA1UdEQQWMBSBEmhvc3RtYXN0ZXJA
YWNtZS5zdzANBgkqhkiG9w0BAQsFAAOCAQEAbr0hZMGXc8GBKzIsMxMaVonq0QHv
YkKIr0ZWuGDG77T+y/lmV9CoaPWXqixgMsfx2NrZj/CbBu40579HgHTXEvhWFkFv
rAj9+nrqcb0VGbFqhNKXYPxBiSimAog7z56eahMnomjLv1DNbqhRwAPkYgZW49R0
c0OJy5cPno/kZ8M+SyrDtGtAOvGmnNme0z5fnQM3UZakVMkQAmu+razCi0PGXcA8
atLM0QyxK7WJnf4Ot8mcmNgfpKkNcR4UTsw6k2fecRxIoVv821Nyg6vhRUNV2+Vy
0a3Bsu2Kh5iehCl+9C57zwTqN7msYjhTZSIV9h8mKEQhN8yC9UU6lXmhew==
-----END CERTIFICATE-----
