Certificate:
    Data:
        Version: 3 (0x2)
        Serial Number:
            a9:ba:f4:4c:cf:ca:c8:a3
    Signature Algorithm: sha256WithRSAEncryption
        Issuer: C=SW, L=Stockholm, O=ACME, CN=OpenVPN-ACME-CA
        Validity
            Not Before: Mar  2 18:26:48 2016 GMT
            Not After : Mar  3 18:26:48 2016 GMT
        Subject: C=SW, L=Stockholm, O=ACME, CN=temp.acme.sw
        Subject Public Key Info:
            Public Key Algorithm: rsaEncryption
                Public-Key: (2048 bit)
                Modulus:
                    00:cc:ce:84:ad:44:fd:1f:ed:cc:5e:23:46:cc:8c:
                    95:27:bb:93:f8:4d:b9:23:e7:b6:1e:b9:90:e9:e0:
                    ea:89:94:c9:b0:57:32:91:8d:57:b1:43:67:66:64:
                    c1:33:e1:fc:03:3c:68:e6:ac:5f:4f:6a:aa:79:2d:
                    db:4a:f6:ce:f7:47:a1:8d:88:39:b6:9c:24:80:28:
                    6f:56:e6:c4:42:49:f5:48:17:66:56:78:c5:72:48:
                    73:95:19:58:23:b3:d4:3b:7f:d4:b5:06:03:80:63:
                    d5:3d:02:e4:34:9a:83:ef:49:9f:31:4a:67:66:b6:
                    ba:a3:37:1a:4d:41:24:a2:95:89:4a:ed:80:88:09:
                    00:5e:ac:82:e3:52:b5:ef:f7:35:c6:9f:6e:ce:64:
                    dd:fc:77:4c:1b:d2:6b:11:98:e4:f2:a2:30:87:3d:
                    a6:e1:46:b8:ea:3f:b5:bd:19:af:f5:af:46:2d:ec:
                    13:06:30:84:9c:82:35:8f:12:44:3a:68:1e:95:c1:
                    05:ac:70:96:60:49:c8:ec:1a:ba:49:e2:ab:07:44:
                    27:c3:29:93:eb:0f:64:8c:b8:33:df:3f:89:03:7e:
                    76:b4:dd:ef:2e:82:8a:3b:10:53:b8:90:98:0a:b3:
                    d4:25:db:b9:98:f3:eb:8b:75:94:a5:f0:84:c5:38:
                    32:43
                Exponent: 65537 (0x10001)
        X509v3 extensions:
            X509v3 Basic Constraints: 
                CA:FALSE
            Netscape Cert Type: 
                SSL Client
            X509v3 Key Usage: 
                Digital Signature
            X509v3 Extended Key Usage: 
                TLS Web Client Authentication
            X509v3 Subject Key Identifier: 
                01:34:C4:01:44:A7:18:5B:AB:82:32:94:46:7E:AC:59:88:35:89:1A
            X509v3 Authority Key Identifier: 
                keyid:62:1E:04:9A:97:BD:40:30:BF:C6:24:BD:9D:5C:9C:FB:EF:21:CB:E2

            X509v3 Subject Alternative Name: 
                email:hostmaster@acme.sw
    Signature Algorithm: sha256WithRSAEncryption
         68:d8:1d:47:63:b3:44:88:e2:7e:09:d4:25:8f:0e:5a:f4:cf:
         73:c6:70:5f:1c:19:7d:b2:6d:37:2f:6d:63:4a:71:b8:58:3c:
         05:17:82:f0:3d:38:ee:0d:1c:5a:c6:43:74:5a:92:74:21:e5:
         11:01:a1:99:66:1d:f2:ef:3f:ad:d2:9d:48:fd:dc:3b:5c:47:
         f3:cc:38:e5:25:d5:cb:76:dd:b5:be:cc:30:31:aa:e5:bf:19:
         5c:4c:1b:5a:f6:af:d4:2a:a2:23:f0:92:2b:62:f5:d5:99:2f:
         e0:d3:70:d8:5e:ec:6c:bf:11:f9:e2:29:a0:eb:09:04:d1:8d:
         7d:cd:2b:68:cf:1c:10:5e:7a:15:e0:18:75:19:5c:ff:f9:35:
         29:47:62:57:aa:ed:c7:b0:22:45:73:99:f3:a8:69:2b:eb:30:
         3e:ed:73:f9:ff:e7:68:4f:7f:d5:45:a1:b7:a8:17:2e:dd:0d:
         37:0d:98:d9:0a:13:67:d1:c3:8a:87:3a:2a:5a:cc:c8:a9:9f:
         00:78:1a:f9:ff:ed:e6:a1:d8:01:b8:92:f5:8b:aa:60:b8:51:
         7b:1b:88:e4:4b:86:9c:31:ab:62:2f:2d:ed:08:45:cb:80:f8:
         6d:76:1a:8d:3f:2d:01:3e:28:e3:13:68:ba:af:1c:f9:1e:45:
         3d:14:45:5d
-----BEGIN CERTIFICATE-----
MIIDtzCCAp+gAwIBAgIJAKm69EzPysijMA0GCSqGSIb3DQEBCwUAMEoxCzAJBgNV
BAYTAlNXMRIwEAYDVQQHDAlTdG9ja2hvbG0xDTALBgNVBAoMBEFDTUUxGDAWBgNV
BAMMD09wZW5WUE4tQUNNRS1DQTAeFw0xNjAzMDIxODI2NDhaFw0xNjAzMDMxODI2
NDhaMEcxCzAJBgNVBAYTAlNXMRIwEAYDVQQHDAlTdG9ja2hvbG0xDTALBgNVBAoM
BEFDTUUxFTATBgNVBAMMDHRlbXAuYWNtZS5zdzCCASIwDQYJKoZIhvcNAQEBBQAD
ggEPADCCAQoCggEBAMzOhK1E/R/tzF4jRsyMlSe7k/hNuSPnth65kOng6omUybBX
MpGNV7FDZ2ZkwTPh/AM8aOasX09qqnkt20r2zvdHoY2IObacJIAob1bmxEJJ9UgX
ZlZ4xXJIc5UZWCOz1Dt/1LUGA4Bj1T0C5DSag+9JnzFKZ2a2uqM3Gk1BJKKViUrt
gIgJAF6sguNSte/3Ncafbs5k3fx3TBvSaxGY5PKiMIc9puFGuOo/tb0Zr/WvRi3s
EwYwhJyCNY8SRDpoHpXBBaxwlmBJyOwaukniqwdEJ8Mpk+sPZIy4M98/iQN+drTd
7y6CijsQU7iQmAqz1CXbuZjz64t1lKXwhMU4MkMCAwEAAaOBojCBnzAJBgNVHRME
AjAAMBEGCWCGSAGG+EIBAQQEAwIHgDALBgNVHQ8EBAMCB4AwEwYDVR0lBAwwCgYI
KwYBBQUHAwIwHQYDVR0OBBYEFAE0xAFEpxhbq4IylEZ+rFmINYkaMB8GA1UdIwQY
MBaAFGIeBJqXvUAwv8YkvZ1cnPvvIcviMB0GA1UdEQQWMBSBEmhvc3RtYXN0ZXJA
YWNtZS5zdzANBgkqhkiG9w0BAQsFAAOCAQEAaNgdR2OzRIjifgnUJY8OWvTPc8Zw
XxwZfbJtNy9tY0pxuFg8BReC8D047g0cWsZDdFqSdCHlEQGhmWYd8u8/rdKdSP3c
O1xH88w45SXVy3bdtb7MMDGq5b8ZXEwbWvav1CqiI/CSK2L11Zkv4NNw2F7sbL8R
+eIpoOsJBNGNfc0raM8cEF56FeAYdRlc//k1KUdiV6rtx7AiRXOZ86hpK+swPu1z
+f/naE9/1UWht6gXLt0NNw2Y2QoTZ9HDioc6KlrMyKmfAHga+f/t5qHYAbiS9Yuq
YLhRexuI5EuGnDGrYi8t7QhFy4D4bXYajT8tAT4o4xNouq8c+R5FPRRFXQ==
-----END CERTIFICATE-----
