Certificate:
    Data:
        Version: 3 (0x2)
        Serial Number:
            a9:ba:f4:4c:cf:ca:c8:bc
    Signature Algorithm: sha256WithRSAEncryption
        Issuer: C=SW, L=Stockholm, O=ACME, CN=OpenVPN-ACME-CA
        Validity
            Not Before: Mar  3 13:05:25 2016 GMT
            Not After : Mar  4 13:05:25 2016 GMT
        Subject: C=SW, L=Stockholm, O=ACME, CN=temporal_certificate.acme.sw
        Subject Public Key Info:
            Public Key Algorithm: rsaEncryption
                Public-Key: (2048 bit)
                Modulus:
                    00:cf:60:87:46:88:c4:8d:94:0a:d1:5f:c7:dd:fb:
                    bd:42:bb:76:e7:34:ac:4f:9a:d6:6b:88:3b:d7:99:
                    28:26:55:c4:73:8b:85:00:fe:65:ce:0c:a9:8f:43:
                    aa:f0:00:97:4e:a3:ae:fa:15:55:1b:ab:85:2c:cf:
                    d5:da:37:c7:ed:eb:38:60:da:8a:d2:8b:4a:58:a1:
                    dd:ea:ee:32:bc:df:fb:e3:4d:c0:23:31:67:cd:b9:
                    69:5c:14:59:95:29:c6:a2:03:42:ea:39:29:22:87:
                    b1:9b:6b:85:05:27:da:a6:a5:f3:3f:9b:14:70:c7:
                    5a:9b:a5:26:db:74:24:11:bc:2a:33:af:38:32:a9:
                    0b:3f:af:41:b1:e4:43:cf:fd:e7:dc:c3:af:71:d1:
                    d8:8f:86:60:37:02:8e:34:6f:77:de:50:be:c8:3f:
                    7f:42:25:e5:a7:70:ea:2a:d4:fb:17:06:75:d5:e4:
                    d1:9a:10:af:b4:fb:0e:17:9b:51:2c:ff:98:d6:9b:
                    b8:b8:c6:d0:a5:7f:ca:9f:3c:85:5c:d2:44:9c:a1:
                    fa:69:13:00:39:4c:95:09:2a:be:f0:00:36:34:44:
                    4c:dd:31:d0:c7:f9:a2:55:a0:6f:c0:8e:98:ed:2b:
                    1b:87:82:cd:e9:f3:4b:c2:26:13:26:5a:00:71:c7:
                    0b:01
                Exponent: 65537 (0x10001)
        X509v3 extensions:
            X509v3 Basic Constraints: 
                CA:FALSE
            Netscape Cert Type: 
                SSL Client
            X509v3 Key Usage: 
                Digital Signature
            X509v3 Extended Key Usage: 
                TLS Web Client Authentication
            X509v3 Subject Key Identifier: 
                52:9F:4A:36:91:9C:CD:85:DE:3C:DE:C7:DE:8D:3D:69:EE:11:35:23
            X509v3 Authority Key Identifier: 
                keyid:62:1E:04:9A:97:BD:40:30:BF:C6:24:BD:9D:5C:9C:FB:EF:21:CB:E2

            X509v3 Subject Alternative Name: 
                email:hostmaster@acme.sw
    Signature Algorithm: sha256WithRSAEncryption
         71:06:ad:2c:95:45:be:a4:73:36:e6:13:c4:c1:7f:2c:5f:9e:
         a2:9f:d5:27:61:1e:a8:80:97:60:ae:1d:bb:4d:a3:ea:ca:2f:
         d9:f9:f4:4d:dd:6f:b9:a7:bc:ae:8f:82:84:09:45:0e:dc:9c:
         46:49:d6:05:30:4b:60:33:8b:42:fd:0b:c1:61:7f:82:40:65:
         3b:c4:14:9b:5c:f5:e6:f3:fe:c7:33:78:6b:5e:78:d5:dd:ac:
         0f:76:33:bd:4c:10:7d:fa:43:49:73:84:91:b1:02:a5:8d:9f:
         f5:76:5e:be:a8:45:eb:90:73:6d:cf:f6:d9:bc:a0:4a:72:dd:
         20:e5:00:f7:17:3c:56:c8:a7:ed:a5:98:30:06:91:23:d7:f2:
         2d:e6:a4:0c:f3:00:2c:7d:14:47:60:e3:de:c8:39:ed:04:51:
         35:83:c4:5f:f3:ba:2c:1f:91:43:e5:af:b4:64:2a:38:a2:f7:
         9b:53:03:ef:8e:b0:f8:20:4d:cd:a9:d7:aa:ae:5d:e2:a0:c9:
         68:30:46:26:e1:a2:aa:8f:1d:de:62:fe:23:a9:a6:c0:e8:ff:
         b2:cf:d6:7a:87:8e:b4:ea:00:0c:bf:2f:20:52:36:9b:f5:1d:
         e8:4f:ae:fd:1f:f1:79:b9:a6:88:ec:2b:41:9a:ef:f0:27:69:
         3b:7e:2c:0d
-----BEGIN CERTIFICATE-----
MIIDxzCCAq+gAwIBAgIJAKm69EzPysi8MA0GCSqGSIb3DQEBCwUAMEoxCzAJBgNV
BAYTAlNXMRIwEAYDVQQHDAlTdG9ja2hvbG0xDTALBgNVBAoMBEFDTUUxGDAWBgNV
BAMMD09wZW5WUE4tQUNNRS1DQTAeFw0xNjAzMDMxMzA1MjVaFw0xNjAzMDQxMzA1
MjVaMFcxCzAJBgNVBAYTAlNXMRIwEAYDVQQHDAlTdG9ja2hvbG0xDTALBgNVBAoM
BEFDTUUxJTAjBgNVBAMMHHRlbXBvcmFsX2NlcnRpZmljYXRlLmFjbWUuc3cwggEi
MA0GCSqGSIb3DQEBAQUAA4IBDwAwggEKAoIBAQDPYIdGiMSNlArRX8fd+71Cu3bn
NKxPmtZriDvXmSgmVcRzi4UA/mXODKmPQ6rwAJdOo676FVUbq4Usz9XaN8ft6zhg
2orSi0pYod3q7jK83/vjTcAjMWfNuWlcFFmVKcaiA0LqOSkih7Gba4UFJ9qmpfM/
mxRwx1qbpSbbdCQRvCozrzgyqQs/r0Gx5EPP/efcw69x0diPhmA3Ao40b3feUL7I
P39CJeWncOoq1PsXBnXV5NGaEK+0+w4Xm1Es/5jWm7i4xtClf8qfPIVc0kScofpp
EwA5TJUJKr7wADY0REzdMdDH+aJVoG/AjpjtKxuHgs3p80vCJhMmWgBxxwsBAgMB
AAGjgaIwgZ8wCQYDVR0TBAIwADARBglghkgBhvhCAQEEBAMCB4AwCwYDVR0PBAQD
AgeAMBMGA1UdJQQMMAoGCCsGAQUFBwMCMB0GA1UdDgQWBBRSn0o2kZzNhd483sfe
jT1p7hE1IzAfBgNVHSMEGDAWgBRiHgSal71AML/GJL2dXJz77yHL4jAdBgNVHREE
FjAUgRJob3N0bWFzdGVyQGFjbWUuc3cwDQYJKoZIhvcNAQELBQADggEBAHEGrSyV
Rb6kczbmE8TBfyxfnqKf1SdhHqiAl2CuHbtNo+rKL9n59E3db7mnvK6PgoQJRQ7c
nEZJ1gUwS2Azi0L9C8Fhf4JAZTvEFJtc9ebz/sczeGteeNXdrA92M71MEH36Q0lz
hJGxAqWNn/V2Xr6oReuQc23P9tm8oEpy3SDlAPcXPFbIp+2lmDAGkSPX8i3mpAzz
ACx9FEdg497IOe0EUTWDxF/zuiwfkUPlr7RkKjii95tTA++OsPggTc2p16quXeKg
yWgwRibhoqqPHd5i/iOppsDo/7LP1nqHjrTqAAy/LyBSNpv1HehPrv0f8Xm5pojs
K0Ga7/AnaTt+LA0=
-----END CERTIFICATE-----
