Certificate:
    Data:
        Version: 3 (0x2)
        Serial Number:
            a9:ba:f4:4c:cf:ca:c8:b9
    Signature Algorithm: sha256WithRSAEncryption
        Issuer: C=SW, L=Stockholm, O=ACME, CN=OpenVPN-ACME-CA
        Validity
            Not Before: Mar  3 13:02:22 2016 GMT
            Not After : Mar  4 13:02:22 2016 GMT
        Subject: C=SW, L=Stockholm, O=ACME, CN=temporal_certificate.acme.sw
        Subject Public Key Info:
            Public Key Algorithm: rsaEncryption
                Public-Key: (2048 bit)
                Modulus:
                    00:cf:13:08:c0:73:e1:43:27:08:c7:fa:ea:3a:61:
                    7a:ab:b7:54:dc:c1:96:73:40:cb:48:09:9a:b4:50:
                    19:5b:19:19:fa:93:44:55:cd:8e:66:55:25:b1:ce:
                    b3:46:17:63:13:45:83:09:92:d5:72:9b:3d:91:94:
                    bf:b2:cd:2b:a3:12:bd:7d:82:ed:2a:95:bb:8c:67:
                    4d:9d:d4:db:68:82:66:cf:e2:01:f1:69:c5:c5:77:
                    3e:16:70:33:28:51:ca:c0:4b:9e:cd:71:0d:7b:8c:
                    2f:2f:87:40:56:02:e8:a3:a5:b6:6a:fa:62:20:56:
                    c8:82:e8:0c:71:7b:68:21:ff:a8:a1:8a:e6:26:e2:
                    bd:88:0a:aa:c9:82:23:23:c0:d2:26:e1:9c:5b:2b:
                    e3:f5:71:04:f2:78:12:3b:5c:84:d6:bf:26:9e:ca:
                    09:c6:28:5c:e6:4b:8a:d6:01:07:c0:f6:8e:c2:50:
                    fb:8a:ef:9f:32:25:1f:25:1e:9d:34:59:e0:eb:d5:
                    9f:d5:1c:64:e6:43:21:25:9a:e6:94:5e:48:2b:a4:
                    14:4b:4d:b4:a8:02:2d:a4:fd:31:6f:3a:f4:d4:c4:
                    94:56:3a:b8:51:dd:1a:5a:25:7f:37:33:b0:26:65:
                    87:94:83:99:c8:f0:76:f7:50:67:57:9e:a5:18:8d:
                    d7:4d
                Exponent: 65537 (0x10001)
        X509v3 extensions:
            X509v3 Basic Constraints: 
                CA:FALSE
            Netscape Cert Type: 
                SSL Client
            X509v3 Key Usage: 
                Digital Signature
            X509v3 Extended Key Usage: 
                TLS Web Client Authentication
            X509v3 Subject Key Identifier: 
                C2:D0:EE:E4:67:41:22:8D:AD:45:E8:A1:FE:8B:3D:37:8D:BF:CC:19
            X509v3 Authority Key Identifier: 
                keyid:62:1E:04:9A:97:BD:40:30:BF:C6:24:BD:9D:5C:9C:FB:EF:21:CB:E2

            X509v3 Subject Alternative Name: 
                email:hostmaster@acme.sw
    Signature Algorithm: sha256WithRSAEncryption
         07:30:65:85:9e:0d:48:c5:ed:32:8f:70:91:20:26:71:e4:21:
         1b:83:b9:c1:75:3c:a8:a4:e1:47:40:95:59:f8:97:2f:42:7a:
         63:dc:51:2f:0c:bd:53:e8:bf:c4:a7:e9:2d:99:1e:de:a4:e7:
         ac:ae:fa:c7:8f:22:61:97:58:dc:cd:f8:f6:52:16:1b:85:4a:
         23:d8:c8:39:9b:c3:ea:8c:d3:5d:90:72:2e:32:6d:d6:7a:4a:
         cb:63:6c:5b:9a:68:14:65:cb:a0:bb:db:de:b3:c8:ea:0d:9a:
         37:ff:e1:b0:5f:56:0b:64:42:1e:dc:87:11:97:72:ab:71:74:
         d8:94:86:a0:35:79:96:32:d5:05:2c:c5:d1:9e:1b:c8:aa:c3:
         d7:be:95:a6:d7:c0:9f:e1:b0:00:8f:86:e5:d6:ee:7c:e9:21:
         c5:bf:1c:67:27:e5:cc:91:c0:ba:fd:84:21:b4:16:28:66:87:
         42:5b:76:2b:4b:b2:18:56:fe:68:91:08:31:fd:44:cd:5a:f1:
         91:3f:7d:51:54:57:69:a6:08:c6:ae:41:d8:91:8d:bd:f7:a7:
         07:56:c5:19:eb:97:44:84:95:92:b2:a3:95:e2:18:96:df:80:
         d1:56:60:61:2e:49:55:08:3e:68:79:47:16:8b:fb:c9:f0:fb:
         51:1e:da:3d
-----BEGIN CERTIFICATE-----
MIIDxzCCAq+gAwIBAgIJAKm69EzPysi5MA0GCSqGSIb3DQEBCwUAMEoxCzAJBgNV
BAYTAlNXMRIwEAYDVQQHDAlTdG9ja2hvbG0xDTALBgNVBAoMBEFDTUUxGDAWBgNV
BAMMD09wZW5WUE4tQUNNRS1DQTAeFw0xNjAzMDMxMzAyMjJaFw0xNjAzMDQxMzAy
MjJaMFcxCzAJBgNVBAYTAlNXMRIwEAYDVQQHDAlTdG9ja2hvbG0xDTALBgNVBAoM
BEFDTUUxJTAjBgNVBAMMHHRlbXBvcmFsX2NlcnRpZmljYXRlLmFjbWUuc3cwggEi
MA0GCSqGSIb3DQEBAQUAA4IBDwAwggEKAoIBAQDPEwjAc+FDJwjH+uo6YXqrt1Tc
wZZzQMtICZq0UBlbGRn6k0RVzY5mVSWxzrNGF2MTRYMJktVymz2RlL+yzSujEr19
gu0qlbuMZ02d1NtogmbP4gHxacXFdz4WcDMoUcrAS57NcQ17jC8vh0BWAuijpbZq
+mIgVsiC6Axxe2gh/6ihiuYm4r2ICqrJgiMjwNIm4ZxbK+P1cQTyeBI7XITWvyae
ygnGKFzmS4rWAQfA9o7CUPuK758yJR8lHp00WeDr1Z/VHGTmQyElmuaUXkgrpBRL
TbSoAi2k/TFvOvTUxJRWOrhR3RpaJX83M7AmZYeUg5nI8Hb3UGdXnqUYjddNAgMB
AAGjgaIwgZ8wCQYDVR0TBAIwADARBglghkgBhvhCAQEEBAMCB4AwCwYDVR0PBAQD
AgeAMBMGA1UdJQQMMAoGCCsGAQUFBwMCMB0GA1UdDgQWBBTC0O7kZ0Eija1F6KH+
iz03jb/MGTAfBgNVHSMEGDAWgBRiHgSal71AML/GJL2dXJz77yHL4jAdBgNVHREE
FjAUgRJob3N0bWFzdGVyQGFjbWUuc3cwDQYJKoZIhvcNAQELBQADggEBAAcwZYWe
DUjF7TKPcJEgJnHkIRuDucF1PKik4UdAlVn4ly9CemPcUS8MvVPov8Sn6S2ZHt6k
56yu+sePImGXWNzN+PZSFhuFSiPYyDmbw+qM012Qci4ybdZ6SstjbFuaaBRly6C7
296zyOoNmjf/4bBfVgtkQh7chxGXcqtxdNiUhqA1eZYy1QUsxdGeG8iqw9e+labX
wJ/hsACPhuXW7nzpIcW/HGcn5cyRwLr9hCG0Fihmh0JbditLshhW/miRCDH9RM1a
8ZE/fVFUV2mmCMauQdiRjb33pwdWxRnrl0SElZKyo5XiGJbfgNFWYGEuSVUIPmh5
RxaL+8nw+1Ee2j0=
-----END CERTIFICATE-----
