Certificate:
    Data:
        Version: 3 (0x2)
        Serial Number:
            a9:ba:f4:4c:cf:ca:c8:a0
    Signature Algorithm: sha256WithRSAEncryption
        Issuer: C=SW, L=Stockholm, O=ACME, CN=OpenVPN-ACME-CA
        Validity
            Not Before: Mar  2 18:22:06 2016 GMT
            Not After : Mar  3 18:22:06 2016 GMT
        Subject: C=SW, L=Stockholm, O=ACME, CN=temp.acme.sw
        Subject Public Key Info:
            Public Key Algorithm: rsaEncryption
                Public-Key: (2048 bit)
                Modulus:
                    00:df:eb:87:22:eb:36:8b:11:a6:77:5d:41:e9:55:
                    68:ca:04:f5:42:66:a2:8b:d4:39:be:6f:f2:04:62:
                    82:51:27:e5:c2:8e:e4:f9:d0:b8:cd:5e:98:bd:dc:
                    77:da:c5:62:29:3a:6f:ce:85:36:ee:ad:5d:ba:e4:
                    82:8b:28:58:9d:90:cd:06:cb:eb:88:e0:3c:20:91:
                    7b:d3:93:be:f1:7e:64:8c:ae:af:7f:4c:00:39:3b:
                    58:a3:fe:a3:1a:a6:0e:0f:ba:96:ee:1e:a2:89:71:
                    45:d5:b9:a7:af:b1:08:79:56:37:25:01:1a:22:84:
                    82:26:1d:64:25:2a:93:2b:07:ec:61:37:27:0a:cd:
                    ac:b1:5c:6f:ff:d2:91:ef:94:3e:25:36:3d:af:cc:
                    48:df:69:ae:bd:a3:51:4c:3a:08:55:8a:2f:1d:ff:
                    ad:7d:70:88:20:a5:77:44:e5:7b:88:e0:ab:c0:87:
                    22:a6:ec:20:7f:b1:51:4a:9d:b5:a7:ed:bc:4f:81:
                    ea:2e:31:b6:13:d0:ac:46:df:9b:e2:ed:7d:94:c2:
                    37:f2:08:6b:51:77:82:2a:cf:c5:07:4b:15:94:7c:
                    13:9f:d6:93:db:40:3e:fa:3b:6c:ae:c0:c2:57:7c:
                    70:72:4e:05:e5:58:4f:07:c4:db:3e:dd:88:f7:15:
                    87:1f
                Exponent: 65537 (0x10001)
        X509v3 extensions:
            X509v3 Basic Constraints: 
                CA:FALSE
            Netscape Cert Type: 
                SSL Client
            X509v3 Key Usage: 
                Digital Signature
            X509v3 Extended Key Usage: 
                TLS Web Client Authentication
            X509v3 Subject Key Identifier: 
                EE:42:A9:22:A3:9C:7D:B0:6D:76:0C:B1:66:EA:C7:DA:02:32:86:68
            X509v3 Authority Key Identifier: 
                keyid:62:1E:04:9A:97:BD:40:30:BF:C6:24:BD:9D:5C:9C:FB:EF:21:CB:E2

            X509v3 Subject Alternative Name: 
                email:hostmaster@acme.sw
    Signature Algorithm: sha256WithRSAEncryption
         06:18:ad:3d:c9:db:af:a0:8c:ae:65:37:6f:07:5b:fe:95:98:
         8a:06:af:47:20:ae:57:96:9e:2b:48:84:a1:3b:eb:d0:4d:b3:
         b7:bb:98:8c:5a:de:ea:67:fc:2c:ea:a0:1e:09:5d:16:c8:09:
         8a:93:85:22:30:4d:04:d6:ef:df:28:c1:7d:5b:3d:b6:8d:f6:
         ed:66:f3:44:23:85:1e:e2:9e:31:d7:56:bb:95:c9:36:af:35:
         42:b7:ae:bf:ab:f5:94:f5:17:51:7f:6c:a3:87:68:d5:4b:11:
         4d:ba:23:3d:94:71:0f:6f:80:45:26:ee:7c:19:03:19:b0:3b:
         e6:3e:8c:6d:16:8e:e0:4d:f0:14:a5:f4:8f:25:fb:3d:76:4a:
         32:bb:d8:2d:4f:e4:38:28:b1:3a:49:d4:9f:f9:da:e7:2e:09:
         8a:32:67:04:dd:52:9e:38:e9:55:23:9c:27:bd:41:a5:30:2d:
         ef:49:4a:7c:8a:df:68:f9:4f:cd:0d:e4:13:32:13:17:10:90:
         4c:70:db:2b:dc:b4:a8:93:21:fc:62:75:d0:57:df:a3:e0:64:
         ea:ad:5c:5c:60:67:2f:cd:b2:43:96:69:a9:4e:6d:31:3a:85:
         11:13:64:ff:c9:e9:4a:ea:aa:2c:bb:73:c9:03:3d:23:38:72:
         b3:3f:dc:9b
-----BEGIN CERTIFICATE-----
MIIDtzCCAp+gAwIBAgIJAKm69EzPysigMA0GCSqGSIb3DQEBCwUAMEoxCzAJBgNV
BAYTAlNXMRIwEAYDVQQHDAlTdG9ja2hvbG0xDTALBgNVBAoMBEFDTUUxGDAWBgNV
BAMMD09wZW5WUE4tQUNNRS1DQTAeFw0xNjAzMDIxODIyMDZaFw0xNjAzMDMxODIy
MDZaMEcxCzAJBgNVBAYTAlNXMRIwEAYDVQQHDAlTdG9ja2hvbG0xDTALBgNVBAoM
BEFDTUUxFTATBgNVBAMMDHRlbXAuYWNtZS5zdzCCASIwDQYJKoZIhvcNAQEBBQAD
ggEPADCCAQoCggEBAN/rhyLrNosRpnddQelVaMoE9UJmoovUOb5v8gRiglEn5cKO
5PnQuM1emL3cd9rFYik6b86FNu6tXbrkgosoWJ2QzQbL64jgPCCRe9OTvvF+ZIyu
r39MADk7WKP+oxqmDg+6lu4eoolxRdW5p6+xCHlWNyUBGiKEgiYdZCUqkysH7GE3
JwrNrLFcb//Ske+UPiU2Pa/MSN9prr2jUUw6CFWKLx3/rX1wiCCld0Tle4jgq8CH
IqbsIH+xUUqdtaftvE+B6i4xthPQrEbfm+LtfZTCN/IIa1F3girPxQdLFZR8E5/W
k9tAPvo7bK7Awld8cHJOBeVYTwfE2z7diPcVhx8CAwEAAaOBojCBnzAJBgNVHRME
AjAAMBEGCWCGSAGG+EIBAQQEAwIHgDALBgNVHQ8EBAMCB4AwEwYDVR0lBAwwCgYI
KwYBBQUHAwIwHQYDVR0OBBYEFO5CqSKjnH2wbXYMsWbqx9oCMoZoMB8GA1UdIwQY
MBaAFGIeBJqXvUAwv8YkvZ1cnPvvIcviMB0GA1UdEQQWMBSBEmhvc3RtYXN0ZXJA
YWNtZS5zdzANBgkqhkiG9w0BAQsFAAOCAQEABhitPcnbr6CMrmU3bwdb/pWYigav
RyCuV5aeK0iEoTvr0E2zt7uYjFre6mf8LOqgHgldFsgJipOFIjBNBNbv3yjBfVs9
to327WbzRCOFHuKeMddWu5XJNq81Qreuv6v1lPUXUX9so4do1UsRTbojPZRxD2+A
RSbufBkDGbA75j6MbRaO4E3wFKX0jyX7PXZKMrvYLU/kOCixOknUn/na5y4JijJn
BN1SnjjpVSOcJ71BpTAt70lKfIrfaPlPzQ3kEzITFxCQTHDbK9y0qJMh/GJ10Fff
o+Bk6q1cXGBnL82yQ5ZpqU5tMTqFERNk/8npSuqqLLtzyQM9Izhysz/cmw==
-----END CERTIFICATE-----
