Certificate:
    Data:
        Version: 3 (0x2)
        Serial Number:
            a9:ba:f4:4c:cf:ca:c8:ae
    Signature Algorithm: sha256WithRSAEncryption
        Issuer: C=SW, L=Stockholm, O=ACME, CN=OpenVPN-ACME-CA
        Validity
            Not Before: Mar  3 12:46:26 2016 GMT
            Not After : Mar  4 12:46:26 2016 GMT
        Subject: C=SW, L=Stockholm, O=ACME, CN=temporal_certificate.acme.sw
        Subject Public Key Info:
            Public Key Algorithm: rsaEncryption
                Public-Key: (2048 bit)
                Modulus:
                    00:ce:a6:36:79:28:3a:25:c8:fa:f8:86:08:77:cf:
                    0c:33:8b:30:a4:e3:77:0c:13:35:e6:52:02:c0:bc:
                    92:7c:57:d2:47:40:a4:08:ae:ce:32:f5:b0:ec:9c:
                    ce:8e:ff:3c:b7:6c:28:61:fe:89:b3:2f:5b:5f:7a:
                    2f:ab:72:1c:55:f2:1d:5a:cd:47:08:26:24:7c:4d:
                    ac:96:02:76:0e:75:ec:53:da:0f:f6:20:38:d0:0a:
                    fb:0a:62:62:6e:0a:b1:13:c5:00:6f:56:af:46:87:
                    bb:a7:ce:a3:21:cf:df:f4:8f:9c:db:66:6f:b3:3a:
                    8d:34:ff:71:71:1d:e0:20:00:00:98:be:44:76:e8:
                    64:d4:8c:48:cc:22:50:91:21:11:ee:a0:94:d5:0b:
                    b8:01:7c:2c:fc:96:a5:a9:3a:1b:48:06:fd:c9:7f:
                    08:a8:f4:09:75:5b:20:72:58:cc:72:28:52:8d:30:
                    66:63:41:3e:d3:f4:c0:1c:02:67:ed:99:b6:28:f6:
                    d4:2d:d9:6c:62:a2:fa:24:85:32:95:46:2d:3b:c5:
                    d5:06:94:07:19:04:96:b3:cb:4d:09:30:3b:1f:9a:
                    07:4f:e2:03:53:9b:8b:5a:9f:6f:bf:f6:d7:db:da:
                    18:51:b3:dc:6b:8f:7e:db:1f:03:5d:5f:93:13:24:
                    2c:df
                Exponent: 65537 (0x10001)
        X509v3 extensions:
            X509v3 Basic Constraints: 
                CA:FALSE
            Netscape Cert Type: 
                SSL Client
            X509v3 Key Usage: 
                Digital Signature
            X509v3 Extended Key Usage: 
                TLS Web Client Authentication
            X509v3 Subject Key Identifier: 
                04:6B:5D:8D:A0:2E:86:1B:C7:DA:44:32:CA:09:BC:56:5E:EC:52:E5
            X509v3 Authority Key Identifier: 
                keyid:62:1E:04:9A:97:BD:40:30:BF:C6:24:BD:9D:5C:9C:FB:EF:21:CB:E2

            X509v3 Subject Alternative Name: 
                email:hostmaster@acme.sw
    Signature Algorithm: sha256WithRSAEncryption
         59:36:4d:2d:fc:a6:26:65:f5:65:d6:49:f0:f7:70:c7:ed:1f:
         9d:cf:a0:ad:b8:04:7b:14:d6:b5:67:9a:f4:ea:4c:19:c5:cd:
         bc:b1:19:dc:6a:a6:98:83:d2:73:67:53:b7:96:57:d7:5c:42:
         27:b2:44:cb:e7:40:74:22:52:1f:94:45:b1:87:fc:73:76:c6:
         ae:82:f5:82:63:7d:d3:77:fd:71:89:d9:7b:f7:0c:4f:07:a8:
         4c:c3:66:22:cf:be:d2:38:8d:f3:cc:1e:ec:84:a6:68:26:a7:
         71:cf:3b:21:f8:ed:df:42:4a:c1:d3:72:2e:6d:5d:64:52:cd:
         2a:ce:b4:71:8c:7e:52:d5:ef:1d:d1:e0:f6:98:56:88:a1:de:
         15:94:80:45:68:44:bf:af:75:d6:8b:ec:bd:d3:52:ef:d6:b2:
         33:92:4c:54:47:97:f2:e5:6b:d9:91:af:3c:b9:a6:a1:73:83:
         3e:22:c4:53:51:1e:73:ae:90:fd:ee:54:2f:2b:62:7e:45:ae:
         ff:ef:44:4d:33:9d:68:bc:a7:f5:28:27:35:cf:04:f4:8d:08:
         5e:c5:dd:0a:91:51:1b:06:30:f6:1f:fe:e1:89:c9:30:22:34:
         e0:39:b2:db:9e:8b:6f:2b:cd:fd:87:bc:52:eb:c2:9e:cf:1f:
         78:2b:c5:de
-----BEGIN CERTIFICATE-----
MIIDxzCCAq+gAwIBAgIJAKm69EzPysiuMA0GCSqGSIb3DQEBCwUAMEoxCzAJBgNV
BAYTAlNXMRIwEAYDVQQHDAlTdG9ja2hvbG0xDTALBgNVBAoMBEFDTUUxGDAWBgNV
BAMMD09wZW5WUE4tQUNNRS1DQTAeFw0xNjAzMDMxMjQ2MjZaFw0xNjAzMDQxMjQ2
MjZaMFcxCzAJBgNVBAYTAlNXMRIwEAYDVQQHDAlTdG9ja2hvbG0xDTALBgNVBAoM
BEFDTUUxJTAjBgNVBAMMHHRlbXBvcmFsX2NlcnRpZmljYXRlLmFjbWUuc3cwggEi
MA0GCSqGSIb3DQEBAQUAA4IBDwAwggEKAoIBAQDOpjZ5KDolyPr4hgh3zwwzizCk
43cMEzXmUgLAvJJ8V9JHQKQIrs4y9bDsnM6O/zy3bChh/omzL1tfei+rchxV8h1a
zUcIJiR8TayWAnYOdexT2g/2IDjQCvsKYmJuCrETxQBvVq9Gh7unzqMhz9/0j5zb
Zm+zOo00/3FxHeAgAACYvkR26GTUjEjMIlCRIRHuoJTVC7gBfCz8lqWpOhtIBv3J
fwio9Al1WyByWMxyKFKNMGZjQT7T9MAcAmftmbYo9tQt2WxiovokhTKVRi07xdUG
lAcZBJazy00JMDsfmgdP4gNTm4tan2+/9tfb2hhRs9xrj37bHwNdX5MTJCzfAgMB
AAGjgaIwgZ8wCQYDVR0TBAIwADARBglghkgBhvhCAQEEBAMCB4AwCwYDVR0PBAQD
AgeAMBMGA1UdJQQMMAoGCCsGAQUFBwMCMB0GA1UdDgQWBBQEa12NoC6GG8faRDLK
CbxWXuxS5TAfBgNVHSMEGDAWgBRiHgSal71AML/GJL2dXJz77yHL4jAdBgNVHREE
FjAUgRJob3N0bWFzdGVyQGFjbWUuc3cwDQYJKoZIhvcNAQELBQADggEBAFk2TS38
piZl9WXWSfD3cMftH53PoK24BHsU1rVnmvTqTBnFzbyxGdxqppiD0nNnU7eWV9dc
QieyRMvnQHQiUh+URbGH/HN2xq6C9YJjfdN3/XGJ2Xv3DE8HqEzDZiLPvtI4jfPM
HuyEpmgmp3HPOyH47d9CSsHTci5tXWRSzSrOtHGMflLV7x3R4PaYVoih3hWUgEVo
RL+vddaL7L3TUu/WsjOSTFRHl/Lla9mRrzy5pqFzgz4ixFNRHnOukP3uVC8rYn5F
rv/vRE0znWi8p/UoJzXPBPSNCF7F3QqRURsGMPYf/uGJyTAiNOA5stuei28rzf2H
vFLrwp7PH3grxd4=
-----END CERTIFICATE-----
