Certificate:
    Data:
        Version: 3 (0x2)
        Serial Number:
            a9:ba:f4:4c:cf:ca:c8:bf
    Signature Algorithm: sha256WithRSAEncryption
        Issuer: C=SW, L=Stockholm, O=ACME, CN=OpenVPN-ACME-CA
        Validity
            Not Before: Mar  3 13:06:26 2016 GMT
            Not After : Mar  4 13:06:26 2016 GMT
        Subject: C=SW, L=Stockholm, O=ACME, CN=temporal_certificate.acme.sw
        Subject Public Key Info:
            Public Key Algorithm: rsaEncryption
                Public-Key: (2048 bit)
                Modulus:
                    00:e4:b4:9f:62:38:5c:e5:47:aa:2f:cf:67:6d:a4:
                    ab:a1:21:f1:3b:03:43:b4:4e:15:4d:0e:3b:dc:88:
                    92:45:ca:33:d4:c9:a8:f8:b2:e4:f4:20:27:13:ca:
                    cc:e7:54:b8:f8:4c:84:2f:07:70:e9:25:b1:d7:2e:
                    3b:0d:80:d1:23:32:5b:98:1a:db:1f:aa:c3:39:43:
                    cc:a4:b5:03:75:b8:bb:7c:42:46:0e:bd:72:25:fe:
                    c7:2f:da:c2:7f:b2:fb:41:5a:37:6a:74:c2:8a:44:
                    43:97:81:22:87:d5:6b:bf:20:e4:7e:e6:21:06:47:
                    bb:9d:2e:2d:22:c8:df:47:46:fa:7e:10:ef:3b:7e:
                    d7:df:21:6b:96:27:54:f0:ac:28:c9:a8:4d:6f:72:
                    db:95:d7:40:47:ba:9e:d2:fc:10:69:ef:4b:6f:65:
                    36:2f:09:b1:56:8b:57:c0:34:f3:a1:8e:b6:18:11:
                    5d:95:f8:82:43:dd:2f:85:4e:80:a9:a1:65:0a:1a:
                    10:21:d3:11:97:d0:84:32:d7:08:ad:fc:55:f1:6c:
                    b1:7c:47:57:f2:4b:d1:f8:37:f2:1c:7b:72:c0:73:
                    15:99:6c:7a:69:c8:b4:70:9b:9d:f9:ba:ba:8f:df:
                    00:fa:f6:28:a9:2d:8f:9b:cc:a1:e3:e6:1a:e5:79:
                    91:99
                Exponent: 65537 (0x10001)
        X509v3 extensions:
            X509v3 Basic Constraints: 
                CA:FALSE
            Netscape Cert Type: 
                SSL Client
            X509v3 Key Usage: 
                Digital Signature
            X509v3 Extended Key Usage: 
                TLS Web Client Authentication
            X509v3 Subject Key Identifier: 
                DC:45:A6:28:B8:9D:E8:05:67:B6:10:DA:32:CA:B2:B3:96:9A:2C:41
            X509v3 Authority Key Identifier: 
                keyid:62:1E:04:9A:97:BD:40:30:BF:C6:24:BD:9D:5C:9C:FB:EF:21:CB:E2

            X509v3 Subject Alternative Name: 
                email:hostmaster@acme.sw
    Signature Algorithm: sha256WithRSAEncryption
         9e:6c:d3:9d:dd:72:54:a6:c9:af:37:ac:cb:01:ab:1b:2c:52:
         ed:fc:57:30:6d:34:99:4f:8b:2b:64:31:3b:eb:7f:e6:f2:8b:
         58:fe:1b:0a:7c:e7:3f:15:54:61:31:22:4f:53:82:83:49:89:
         5f:f9:19:5c:84:87:2d:ab:4d:8e:2c:10:e7:ae:fa:86:6d:c1:
         7d:34:e0:03:9b:9d:2a:2f:6d:8a:bf:90:b6:87:ff:27:1a:81:
         2e:c3:34:50:95:94:95:6d:dd:ba:c8:a6:d6:ed:8d:5c:90:88:
         6c:70:08:11:58:7a:df:11:82:ed:c1:af:9a:30:50:f6:93:09:
         9f:d4:17:d6:56:8c:a8:e9:c3:be:01:a0:65:62:f5:dc:e3:4a:
         15:70:57:08:37:1f:25:43:b1:cb:6a:d6:79:af:c5:6c:8b:af:
         87:5f:65:57:cc:6b:ab:0b:85:c4:54:66:c4:6f:44:89:7b:c6:
         c0:9e:d2:a6:16:d0:c5:44:e9:a8:13:fc:f9:31:a1:57:69:0f:
         5a:fe:6a:30:49:1b:b4:9e:a3:0b:6b:0b:51:93:c5:b0:e7:c6:
         0a:d7:62:84:88:c1:bb:78:d2:cb:78:93:32:6f:93:d9:9a:01:
         20:67:bb:c3:1e:36:4f:a9:75:63:88:51:71:63:34:ff:9f:e3:
         92:d2:22:e3
-----BEGIN CERTIFICATE-----
MIIDxzCCAq+gAwIBAgIJAKm69EzPysi/MA0GCSqGSIb3DQEBCwUAMEoxCzAJBgNV
BAYTAlNXMRIwEAYDVQQHDAlTdG9ja2hvbG0xDTALBgNVBAoMBEFDTUUxGDAWBgNV
BAMMD09wZW5WUE4tQUNNRS1DQTAeFw0xNjAzMDMxMzA2MjZaFw0xNjAzMDQxMzA2
MjZaMFcxCzAJBgNVBAYTAlNXMRIwEAYDVQQHDAlTdG9ja2hvbG0xDTALBgNVBAoM
BEFDTUUxJTAjBgNVBAMMHHRlbXBvcmFsX2NlcnRpZmljYXRlLmFjbWUuc3cwggEi
MA0GCSqGSIb3DQEBAQUAA4IBDwAwggEKAoIBAQDktJ9iOFzlR6ovz2dtpKuhIfE7
A0O0ThVNDjvciJJFyjPUyaj4suT0ICcTysznVLj4TIQvB3DpJbHXLjsNgNEjMluY
GtsfqsM5Q8yktQN1uLt8QkYOvXIl/scv2sJ/svtBWjdqdMKKREOXgSKH1Wu/IOR+
5iEGR7udLi0iyN9HRvp+EO87ftffIWuWJ1TwrCjJqE1vctuV10BHup7S/BBp70tv
ZTYvCbFWi1fANPOhjrYYEV2V+IJD3S+FToCpoWUKGhAh0xGX0IQy1wit/FXxbLF8
R1fyS9H4N/Ice3LAcxWZbHppyLRwm535urqP3wD69iipLY+bzKHj5hrleZGZAgMB
AAGjgaIwgZ8wCQYDVR0TBAIwADARBglghkgBhvhCAQEEBAMCB4AwCwYDVR0PBAQD
AgeAMBMGA1UdJQQMMAoGCCsGAQUFBwMCMB0GA1UdDgQWBBTcRaYouJ3oBWe2ENoy
yrKzlposQTAfBgNVHSMEGDAWgBRiHgSal71AML/GJL2dXJz77yHL4jAdBgNVHREE
FjAUgRJob3N0bWFzdGVyQGFjbWUuc3cwDQYJKoZIhvcNAQELBQADggEBAJ5s053d
clSmya83rMsBqxssUu38VzBtNJlPiytkMTvrf+byi1j+Gwp85z8VVGExIk9TgoNJ
iV/5GVyEhy2rTY4sEOeu+oZtwX004AObnSovbYq/kLaH/ycagS7DNFCVlJVt3brI
ptbtjVyQiGxwCBFYet8Rgu3Br5owUPaTCZ/UF9ZWjKjpw74BoGVi9dzjShVwVwg3
HyVDsctq1nmvxWyLr4dfZVfMa6sLhcRUZsRvRIl7xsCe0qYW0MVE6agT/PkxoVdp
D1r+ajBJG7SeowtrC1GTxbDnxgrXYoSIwbt40st4kzJvk9maASBnu8MeNk+pdWOI
UXFjNP+f45LSIuM=
-----END CERTIFICATE-----
