Certificate:
    Data:
        Version: 3 (0x2)
        Serial Number:
            a9:ba:f4:4c:cf:ca:c8:ab
    Signature Algorithm: sha256WithRSAEncryption
        Issuer: C=SW, L=Stockholm, O=ACME, CN=OpenVPN-ACME-CA
        Validity
            Not Before: Mar  3 12:38:31 2016 GMT
            Not After : Mar  4 12:38:31 2016 GMT
        Subject: C=SW, L=Stockholm, O=ACME, CN=temp.acme.sw
        Subject Public Key Info:
            Public Key Algorithm: rsaEncryption
                Public-Key: (2048 bit)
                Modulus:
                    00:c3:4f:6f:21:93:d4:28:75:ef:93:1d:90:03:af:
                    82:ff:b3:9f:a1:b0:07:ad:9d:7a:1c:0c:7c:b8:03:
                    47:f2:b1:31:f9:f2:5c:bf:88:e0:86:cc:b8:6a:a7:
                    d8:da:b8:43:e6:15:f5:83:55:97:9b:cf:98:ec:0f:
                    f5:f9:20:b5:1a:e7:22:ee:b3:64:09:d0:95:5c:af:
                    e6:6a:1a:34:e6:4a:1a:fd:30:14:58:f3:bb:44:d2:
                    00:b5:cf:e9:bd:5f:47:71:93:ba:d4:06:4c:1f:82:
                    d5:d8:43:95:f5:57:58:b8:88:d1:64:5d:d5:f5:32:
                    dd:30:4d:72:85:2e:30:a7:b7:6f:44:91:8f:48:4b:
                    8e:31:73:ab:00:0d:4d:7b:4a:e3:6a:d6:96:0f:57:
                    ea:13:0a:20:1e:82:d5:75:85:e6:a8:2f:bc:1d:52:
                    40:9a:1c:20:98:dc:cc:3f:56:71:52:bb:7c:03:df:
                    7f:4f:9a:c3:c4:1a:d3:f0:4e:52:17:7f:9d:c0:9e:
                    1f:8b:c8:02:3f:51:3c:b7:83:35:38:65:4a:78:5a:
                    1c:55:49:3e:e8:8e:94:4b:7e:01:e4:2a:19:11:df:
                    a4:94:88:61:a4:df:db:d1:41:4c:6f:3f:c8:57:98:
                    0d:32:12:95:a7:f5:7d:b6:f1:84:4e:ca:5e:75:ff:
                    99:c1
                Exponent: 65537 (0x10001)
        X509v3 extensions:
            X509v3 Basic Constraints: 
                CA:FALSE
            Netscape Cert Type: 
                SSL Client
            X509v3 Key Usage: 
                Digital Signature
            X509v3 Extended Key Usage: 
                TLS Web Client Authentication
            X509v3 Subject Key Identifier: 
                84:98:D1:1F:97:79:98:AD:E0:CB:49:5C:A8:AF:00:C4:56:C1:D9:83
            X509v3 Authority Key Identifier: 
                keyid:62:1E:04:9A:97:BD:40:30:BF:C6:24:BD:9D:5C:9C:FB:EF:21:CB:E2

            X509v3 Subject Alternative Name: 
                email:hostmaster@acme.sw
    Signature Algorithm: sha256WithRSAEncryption
         1f:0e:cc:2d:ed:e1:c6:d6:e4:22:5f:ae:cf:e6:6d:64:f1:6e:
         4d:60:7a:f4:e8:c9:64:b7:08:07:93:a5:ba:b9:20:f7:73:13:
         5f:8b:ce:b5:d4:3d:1a:bd:90:d3:fe:cb:af:9e:0f:53:0d:cf:
         77:f9:7b:a4:4e:e1:fc:be:98:4a:b1:d3:31:5f:3e:1a:82:ed:
         06:cd:76:8a:66:f0:31:f1:c9:b7:89:23:7d:ec:5c:df:6d:c4:
         0a:d8:d3:b0:39:52:3f:50:50:34:e8:5c:4c:a9:8d:45:09:da:
         a6:d2:29:9c:24:6a:b4:1d:ca:5a:f4:ab:c4:56:f7:9b:94:4c:
         21:39:c2:cc:fb:d7:2d:b3:89:34:00:08:cb:dc:04:86:01:f8:
         f9:7d:28:72:a9:97:e0:4c:19:45:0b:94:5c:f2:8a:6d:92:0f:
         4b:82:26:c1:83:dc:03:72:94:ca:8f:c7:da:20:72:6f:10:1f:
         bf:ac:53:61:33:99:f9:28:2d:94:9a:a0:84:8a:e4:90:2a:b5:
         b7:3a:50:ba:47:98:71:b7:18:0f:f5:24:62:74:b3:e3:02:3b:
         c3:aa:d0:f5:fe:38:88:dc:b4:4f:41:41:b6:17:b4:9c:59:0c:
         e0:17:88:4a:c3:b3:3c:c0:39:88:59:f0:bf:b6:13:b2:44:37:
         07:3f:ea:eb
-----BEGIN CERTIFICATE-----
MIIDtzCCAp+gAwIBAgIJAKm69EzPysirMA0GCSqGSIb3DQEBCwUAMEoxCzAJBgNV
BAYTAlNXMRIwEAYDVQQHDAlTdG9ja2hvbG0xDTALBgNVBAoMBEFDTUUxGDAWBgNV
BAMMD09wZW5WUE4tQUNNRS1DQTAeFw0xNjAzMDMxMjM4MzFaFw0xNjAzMDQxMjM4
MzFaMEcxCzAJBgNVBAYTAlNXMRIwEAYDVQQHDAlTdG9ja2hvbG0xDTALBgNVBAoM
BEFDTUUxFTATBgNVBAMMDHRlbXAuYWNtZS5zdzCCASIwDQYJKoZIhvcNAQEBBQAD
ggEPADCCAQoCggEBAMNPbyGT1Ch175MdkAOvgv+zn6GwB62dehwMfLgDR/KxMfny
XL+I4IbMuGqn2Nq4Q+YV9YNVl5vPmOwP9fkgtRrnIu6zZAnQlVyv5moaNOZKGv0w
FFjzu0TSALXP6b1fR3GTutQGTB+C1dhDlfVXWLiI0WRd1fUy3TBNcoUuMKe3b0SR
j0hLjjFzqwANTXtK42rWlg9X6hMKIB6C1XWF5qgvvB1SQJocIJjczD9WcVK7fAPf
f0+aw8Qa0/BOUhd/ncCeH4vIAj9RPLeDNThlSnhaHFVJPuiOlEt+AeQqGRHfpJSI
YaTf29FBTG8/yFeYDTISlaf1fbbxhE7KXnX/mcECAwEAAaOBojCBnzAJBgNVHRME
AjAAMBEGCWCGSAGG+EIBAQQEAwIHgDALBgNVHQ8EBAMCB4AwEwYDVR0lBAwwCgYI
KwYBBQUHAwIwHQYDVR0OBBYEFISY0R+XeZit4MtJXKivAMRWwdmDMB8GA1UdIwQY
MBaAFGIeBJqXvUAwv8YkvZ1cnPvvIcviMB0GA1UdEQQWMBSBEmhvc3RtYXN0ZXJA
YWNtZS5zdzANBgkqhkiG9w0BAQsFAAOCAQEAHw7MLe3hxtbkIl+uz+ZtZPFuTWB6
9OjJZLcIB5Olurkg93MTX4vOtdQ9Gr2Q0/7Lr54PUw3Pd/l7pE7h/L6YSrHTMV8+
GoLtBs12imbwMfHJt4kjfexc323ECtjTsDlSP1BQNOhcTKmNRQnaptIpnCRqtB3K
WvSrxFb3m5RMITnCzPvXLbOJNAAIy9wEhgH4+X0ocqmX4EwZRQuUXPKKbZIPS4Im
wYPcA3KUyo/H2iBybxAfv6xTYTOZ+SgtlJqghIrkkCq1tzpQukeYcbcYD/UkYnSz
4wI7w6rQ9f44iNy0T0FBthe0nFkM4BeISsOzPMA5iFnwv7YTskQ3Bz/q6w==
-----END CERTIFICATE-----
