Certificate:
    Data:
        Version: 3 (0x2)
        Serial Number:
            a9:ba:f4:4c:cf:ca:c8:b0
    Signature Algorithm: sha256WithRSAEncryption
        Issuer: C=SW, L=Stockholm, O=ACME, CN=OpenVPN-ACME-CA
        Validity
            Not Before: Mar  3 12:49:00 2016 GMT
            Not After : Mar  4 12:49:00 2016 GMT
        Subject: C=SW, L=Stockholm, O=ACME, CN=temporal_certificate.acme.sw
        Subject Public Key Info:
            Public Key Algorithm: rsaEncryption
                Public-Key: (2048 bit)
                Modulus:
                    00:c7:a3:1a:a5:a7:8c:55:a8:ed:0a:8a:e6:b2:65:
                    60:3e:94:3f:79:4b:7b:80:51:fa:8d:d4:f3:67:64:
                    e4:01:54:90:5f:ed:c4:bd:0f:ad:95:fa:9b:4b:6e:
                    63:61:66:36:5d:01:19:e2:45:36:07:59:84:76:96:
                    c6:61:f8:c8:7f:e1:53:55:43:41:75:75:09:71:8c:
                    85:44:af:65:c7:d2:95:96:a2:64:46:60:00:04:a6:
                    8b:dc:df:ed:68:df:58:01:39:b4:e2:e6:14:f1:bd:
                    33:2a:ec:62:ee:01:85:5e:ad:c9:0d:cf:db:87:c2:
                    33:17:da:38:b2:a6:21:21:94:ac:9b:19:05:3c:f9:
                    5c:42:f6:86:fa:d2:37:94:99:1f:ac:31:4d:24:eb:
                    ee:36:10:c0:43:a1:18:e6:66:1f:17:92:f2:17:b7:
                    f4:ac:91:5d:35:93:9d:40:bc:91:75:ef:0e:77:f8:
                    e3:04:3e:32:09:d9:df:67:11:b7:d8:40:7e:f1:e9:
                    73:38:9e:ee:a0:9b:d6:8e:5d:8a:e7:d2:c7:8a:03:
                    59:a7:fc:29:1e:4a:15:be:69:24:3c:25:94:d4:44:
                    fd:65:de:67:80:1f:64:d3:56:21:06:a1:ac:99:47:
                    73:ff:31:04:ea:bb:2d:b6:42:63:a4:56:c4:06:39:
                    0c:e1
                Exponent: 65537 (0x10001)
        X509v3 extensions:
            X509v3 Basic Constraints: 
                CA:FALSE
            Netscape Cert Type: 
                SSL Client
            X509v3 Key Usage: 
                Digital Signature
            X509v3 Extended Key Usage: 
                TLS Web Client Authentication
            X509v3 Subject Key Identifier: 
                77:0D:49:D9:FB:28:DD:DA:35:AD:04:D8:B3:1B:BE:1C:CE:BE:B0:6B
            X509v3 Authority Key Identifier: 
                keyid:62:1E:04:9A:97:BD:40:30:BF:C6:24:BD:9D:5C:9C:FB:EF:21:CB:E2

            X509v3 Subject Alternative Name: 
                email:hostmaster@acme.sw
    Signature Algorithm: sha256WithRSAEncryption
         ba:2f:79:d7:e9:9c:cf:a2:35:e4:d9:70:71:51:2b:6b:4f:65:
         fd:9c:1b:a6:ec:04:94:a3:20:16:22:14:79:c6:76:1c:6e:7c:
         8a:5d:69:5d:12:40:e9:56:29:f2:81:c3:06:51:0e:19:a5:e4:
         b9:f7:f0:7b:92:1e:a4:76:35:60:88:3a:30:c6:21:14:73:17:
         8a:f1:4a:c6:6c:99:7c:28:14:c3:d6:32:2a:45:22:b7:83:0e:
         50:2a:60:0a:fe:de:b8:ea:15:b8:ae:79:d3:a9:4f:bc:1b:e6:
         67:eb:69:d4:db:08:a1:29:b1:8d:74:47:38:8b:e1:e6:0a:a7:
         70:b4:58:a3:1c:ea:c8:2e:f7:12:fb:b4:64:cb:10:0f:3c:6e:
         99:df:ed:54:19:01:c8:b3:67:41:96:d5:ff:58:3b:76:88:b4:
         b6:e0:6d:b2:ec:43:75:6d:73:41:f8:0f:25:4c:9a:d8:31:29:
         e0:3b:2d:89:80:84:c2:32:c9:de:4f:1c:6d:4a:cc:f1:b3:50:
         ea:5e:04:3d:ec:54:5c:72:93:e1:95:52:18:d2:1a:b4:b4:09:
         f5:ec:0e:4e:fa:af:24:7f:f8:b7:5c:42:8e:33:f8:a5:9e:10:
         92:9c:37:33:23:f7:22:2a:d2:81:6e:15:cb:00:4a:52:a9:9c:
         ce:4c:6b:7b
-----BEGIN CERTIFICATE-----
MIIDxzCCAq+gAwIBAgIJAKm69EzPysiwMA0GCSqGSIb3DQEBCwUAMEoxCzAJBgNV
BAYTAlNXMRIwEAYDVQQHDAlTdG9ja2hvbG0xDTALBgNVBAoMBEFDTUUxGDAWBgNV
BAMMD09wZW5WUE4tQUNNRS1DQTAeFw0xNjAzMDMxMjQ5MDBaFw0xNjAzMDQxMjQ5
MDBaMFcxCzAJBgNVBAYTAlNXMRIwEAYDVQQHDAlTdG9ja2hvbG0xDTALBgNVBAoM
BEFDTUUxJTAjBgNVBAMMHHRlbXBvcmFsX2NlcnRpZmljYXRlLmFjbWUuc3cwggEi
MA0GCSqGSIb3DQEBAQUAA4IBDwAwggEKAoIBAQDHoxqlp4xVqO0KiuayZWA+lD95
S3uAUfqN1PNnZOQBVJBf7cS9D62V+ptLbmNhZjZdARniRTYHWYR2lsZh+Mh/4VNV
Q0F1dQlxjIVEr2XH0pWWomRGYAAEpovc3+1o31gBObTi5hTxvTMq7GLuAYVerckN
z9uHwjMX2jiypiEhlKybGQU8+VxC9ob60jeUmR+sMU0k6+42EMBDoRjmZh8XkvIX
t/SskV01k51AvJF17w53+OMEPjIJ2d9nEbfYQH7x6XM4nu6gm9aOXYrn0seKA1mn
/CkeShW+aSQ8JZTURP1l3meAH2TTViEGoayZR3P/MQTquy22QmOkVsQGOQzhAgMB
AAGjgaIwgZ8wCQYDVR0TBAIwADARBglghkgBhvhCAQEEBAMCB4AwCwYDVR0PBAQD
AgeAMBMGA1UdJQQMMAoGCCsGAQUFBwMCMB0GA1UdDgQWBBR3DUnZ+yjd2jWtBNiz
G74czr6wazAfBgNVHSMEGDAWgBRiHgSal71AML/GJL2dXJz77yHL4jAdBgNVHREE
FjAUgRJob3N0bWFzdGVyQGFjbWUuc3cwDQYJKoZIhvcNAQELBQADggEBALovedfp
nM+iNeTZcHFRK2tPZf2cG6bsBJSjIBYiFHnGdhxufIpdaV0SQOlWKfKBwwZRDhml
5Ln38HuSHqR2NWCIOjDGIRRzF4rxSsZsmXwoFMPWMipFIreDDlAqYAr+3rjqFbiu
edOpT7wb5mfradTbCKEpsY10RziL4eYKp3C0WKMc6sgu9xL7tGTLEA88bpnf7VQZ
AcizZ0GW1f9YO3aItLbgbbLsQ3Vtc0H4DyVMmtgxKeA7LYmAhMIyyd5PHG1KzPGz
UOpeBD3sVFxyk+GVUhjSGrS0CfXsDk76ryR/+LdcQo4z+KWeEJKcNzMj9yIq0oFu
FcsASlKpnM5Ma3s=
-----END CERTIFICATE-----
