Certificate:
    Data:
        Version: 3 (0x2)
        Serial Number:
            a9:ba:f4:4c:cf:ca:c8:c4
    Signature Algorithm: sha256WithRSAEncryption
        Issuer: C=SW, L=Stockholm, O=ACME, CN=OpenVPN-ACME-CA
        Validity
            Not Before: Mar  3 13:07:31 2016 GMT
            Not After : Mar  4 13:07:31 2016 GMT
        Subject: C=SW, L=Stockholm, O=ACME, CN=temporal_certificate.acme.sw
        Subject Public Key Info:
            Public Key Algorithm: rsaEncryption
                Public-Key: (2048 bit)
                Modulus:
                    00:b3:46:7c:fe:4d:02:fe:27:21:5f:c9:68:8a:76:
                    9c:a2:2a:fe:76:43:56:46:2c:80:07:21:58:02:00:
                    81:3f:30:07:1e:b3:83:55:e7:51:ae:07:a7:ef:63:
                    2f:71:91:e7:cf:16:08:da:3a:5c:62:98:ea:79:93:
                    da:1d:da:3e:0f:1c:e3:c4:a2:04:2e:c3:5c:c7:08:
                    da:01:cc:57:0d:c0:0b:4d:90:2c:ab:e4:91:d4:fc:
                    df:3d:b4:d4:a3:91:2a:3c:eb:80:8c:df:e9:ec:d1:
                    2e:11:fe:c6:9f:56:56:de:ba:fb:39:8c:18:49:8d:
                    6d:57:e2:38:07:1e:65:6b:66:a7:68:f3:ec:24:0a:
                    82:59:20:43:60:27:0d:46:e4:a5:bc:82:a2:fd:0f:
                    01:2e:1c:0e:a7:f2:b8:60:0d:f4:e0:dc:0c:bc:3d:
                    f3:1b:a7:b0:37:6e:26:ae:68:be:8c:34:f7:ed:0c:
                    6b:eb:1d:f9:28:5f:b1:71:2d:31:bc:eb:05:98:8d:
                    72:5c:38:59:5f:3a:08:8f:27:47:38:00:04:ed:33:
                    71:8c:50:fe:71:6a:9b:56:ab:c8:0a:1c:08:5f:9b:
                    8e:1b:32:b4:46:2c:7e:93:91:59:7b:94:bd:f2:d6:
                    77:d7:c8:b6:79:11:0b:48:2d:67:d7:e1:3b:be:e3:
                    d0:51
                Exponent: 65537 (0x10001)
        X509v3 extensions:
            X509v3 Basic Constraints: 
                CA:FALSE
            Netscape Cert Type: 
                SSL Client
            X509v3 Key Usage: 
                Digital Signature
            X509v3 Extended Key Usage: 
                TLS Web Client Authentication
            X509v3 Subject Key Identifier: 
                EB:D1:78:07:58:50:09:C5:23:A6:12:69:DC:B5:BE:DA:A7:0F:5A:16
            X509v3 Authority Key Identifier: 
                keyid:62:1E:04:9A:97:BD:40:30:BF:C6:24:BD:9D:5C:9C:FB:EF:21:CB:E2

            X509v3 Subject Alternative Name: 
                email:hostmaster@acme.sw
    Signature Algorithm: sha256WithRSAEncryption
         6f:b3:11:26:6d:e1:d2:83:73:f4:ce:e0:35:d5:41:ed:c3:7e:
         f1:78:60:e2:df:05:96:a0:c6:51:d1:a6:37:be:ba:96:9f:52:
         db:9c:eb:37:93:08:fb:3a:36:c2:04:ce:41:b5:d7:fe:ef:24:
         42:f9:26:b8:ba:29:b3:01:37:8d:7e:2f:77:ce:8c:8b:fc:4d:
         92:1a:c2:8c:d4:72:46:81:8a:c4:d1:a9:94:9a:66:25:9b:4e:
         4c:02:47:dc:ba:84:f8:02:0d:2d:e1:b6:59:1a:35:1a:c9:7f:
         39:42:8e:91:a9:c1:a6:b1:9e:f3:1c:2e:76:5f:93:d0:2c:ad:
         c0:5a:a8:00:3c:68:54:c2:f3:2c:34:da:65:9f:65:27:a3:5e:
         f1:ca:cf:3d:0c:52:64:fe:23:d1:fe:14:61:ac:6c:3e:49:85:
         a7:8f:57:28:30:6f:95:6e:55:af:39:6b:46:f5:00:cb:d5:98:
         01:9b:0a:2e:22:f0:2d:bc:bb:e7:f2:a5:38:a2:52:77:4e:4e:
         9f:bf:dd:17:c8:51:59:8c:d3:23:2f:f6:b0:32:6a:fb:cb:1c:
         ee:d9:50:1a:98:4f:f4:ed:4d:7c:7a:4c:b6:1d:8d:a0:46:4a:
         4c:ad:a6:42:46:16:d0:db:6a:02:c2:98:8f:50:23:4b:fc:7d:
         e0:6a:60:b4
-----BEGIN CERTIFICATE-----
MIIDxzCCAq+gAwIBAgIJAKm69EzPysjEMA0GCSqGSIb3DQEBCwUAMEoxCzAJBgNV
BAYTAlNXMRIwEAYDVQQHDAlTdG9ja2hvbG0xDTALBgNVBAoMBEFDTUUxGDAWBgNV
BAMMD09wZW5WUE4tQUNNRS1DQTAeFw0xNjAzMDMxMzA3MzFaFw0xNjAzMDQxMzA3
MzFaMFcxCzAJBgNVBAYTAlNXMRIwEAYDVQQHDAlTdG9ja2hvbG0xDTALBgNVBAoM
BEFDTUUxJTAjBgNVBAMMHHRlbXBvcmFsX2NlcnRpZmljYXRlLmFjbWUuc3cwggEi
MA0GCSqGSIb3DQEBAQUAA4IBDwAwggEKAoIBAQCzRnz+TQL+JyFfyWiKdpyiKv52
Q1ZGLIAHIVgCAIE/MAces4NV51GuB6fvYy9xkefPFgjaOlximOp5k9od2j4PHOPE
ogQuw1zHCNoBzFcNwAtNkCyr5JHU/N89tNSjkSo864CM3+ns0S4R/safVlbeuvs5
jBhJjW1X4jgHHmVrZqdo8+wkCoJZIENgJw1G5KW8gqL9DwEuHA6n8rhgDfTg3Ay8
PfMbp7A3biauaL6MNPftDGvrHfkoX7FxLTG86wWYjXJcOFlfOgiPJ0c4AATtM3GM
UP5xaptWq8gKHAhfm44bMrRGLH6TkVl7lL3y1nfXyLZ5EQtILWfX4Tu+49BRAgMB
AAGjgaIwgZ8wCQYDVR0TBAIwADARBglghkgBhvhCAQEEBAMCB4AwCwYDVR0PBAQD
AgeAMBMGA1UdJQQMMAoGCCsGAQUFBwMCMB0GA1UdDgQWBBTr0XgHWFAJxSOmEmnc
tb7apw9aFjAfBgNVHSMEGDAWgBRiHgSal71AML/GJL2dXJz77yHL4jAdBgNVHREE
FjAUgRJob3N0bWFzdGVyQGFjbWUuc3cwDQYJKoZIhvcNAQELBQADggEBAG+zESZt
4dKDc/TO4DXVQe3DfvF4YOLfBZagxlHRpje+upafUtuc6zeTCPs6NsIEzkG11/7v
JEL5Jri6KbMBN41+L3fOjIv8TZIawozUckaBisTRqZSaZiWbTkwCR9y6hPgCDS3h
tlkaNRrJfzlCjpGpwaaxnvMcLnZfk9AsrcBaqAA8aFTC8yw02mWfZSejXvHKzz0M
UmT+I9H+FGGsbD5JhaePVygwb5VuVa85a0b1AMvVmAGbCi4i8C28u+fypTiiUndO
Tp+/3RfIUVmM0yMv9rAyavvLHO7ZUBqYT/TtTXx6TLYdjaBGSkytpkJGFtDbagLC
mI9QI0v8feBqYLQ=
-----END CERTIFICATE-----
