Certificate:
    Data:
        Version: 3 (0x2)
        Serial Number:
            a9:ba:f4:4c:cf:ca:c8:b2
    Signature Algorithm: sha256WithRSAEncryption
        Issuer: C=SW, L=Stockholm, O=ACME, CN=OpenVPN-ACME-CA
        Validity
            Not Before: Mar  3 12:55:37 2016 GMT
            Not After : Mar  4 12:55:37 2016 GMT
        Subject: C=SW, L=Stockholm, O=ACME, CN=temporal_certificate.acme.sw
        Subject Public Key Info:
            Public Key Algorithm: rsaEncryption
                Public-Key: (2048 bit)
                Modulus:
                    00:ac:08:ac:29:68:d8:69:55:f7:c4:c1:fe:a8:7e:
                    6e:6e:c4:7e:61:4c:75:a8:d7:83:53:98:6c:a0:57:
                    8d:f5:bc:71:cb:8a:0b:17:d4:87:83:e2:4b:95:55:
                    ab:a8:38:f8:63:d4:dd:d5:86:26:9a:5c:35:c2:86:
                    cf:e5:42:5c:25:19:5e:9f:09:2b:99:39:ef:80:1d:
                    aa:7b:a3:13:b1:38:6e:39:18:85:9b:a3:4f:8b:5d:
                    ba:1b:46:8f:b5:d1:75:14:34:f2:ea:a0:64:66:33:
                    fb:64:28:00:30:a4:d8:60:6c:7d:dd:7b:90:f7:a7:
                    f0:15:eb:c3:37:a1:50:02:4d:51:a9:d4:bd:d2:bd:
                    95:63:4d:34:fd:b9:df:b8:03:91:a1:ba:fe:1c:2d:
                    d5:d3:dc:93:56:d3:4e:66:bd:d5:b8:f7:e5:b7:74:
                    97:37:25:0d:2d:76:d1:e1:f9:d4:cd:36:ad:5a:3f:
                    0d:56:cf:45:15:46:a6:88:e5:c5:b6:28:0c:2e:3d:
                    d2:3c:e7:28:ed:9e:df:21:d5:f2:ad:6e:01:6a:2b:
                    d1:f6:2e:6b:5b:f1:87:93:60:02:41:d8:8d:d5:5e:
                    62:77:53:b6:0e:49:b5:6b:65:f0:ac:b8:52:13:a1:
                    17:f4:ad:d5:ab:29:53:ed:60:4d:79:5e:29:86:e8:
                    ac:19
                Exponent: 65537 (0x10001)
        X509v3 extensions:
            X509v3 Basic Constraints: 
                CA:FALSE
            Netscape Cert Type: 
                SSL Client
            X509v3 Key Usage: 
                Digital Signature
            X509v3 Extended Key Usage: 
                TLS Web Client Authentication
            X509v3 Subject Key Identifier: 
                9D:FF:DE:9A:82:CB:33:AE:29:C6:95:B2:B4:6A:F2:6B:9B:E5:AD:7B
            X509v3 Authority Key Identifier: 
                keyid:62:1E:04:9A:97:BD:40:30:BF:C6:24:BD:9D:5C:9C:FB:EF:21:CB:E2

            X509v3 Subject Alternative Name: 
                email:hostmaster@acme.sw
    Signature Algorithm: sha256WithRSAEncryption
         96:26:46:5a:00:84:12:29:bd:3b:c8:14:96:c1:df:3f:df:4a:
         d7:dd:98:f4:4a:24:e9:d1:73:d7:d3:4f:64:36:c8:d2:f5:ae:
         5d:8d:68:fa:63:ec:25:9a:c0:44:ec:4d:0e:fb:a4:0b:33:4a:
         3c:bb:3d:02:6b:11:90:46:77:91:58:52:f4:19:67:fc:05:c5:
         e7:85:08:b6:cc:a9:22:d7:7a:fe:43:a1:e2:28:91:02:06:f9:
         2e:1e:76:8a:a5:50:82:08:d0:5a:7a:c1:32:6b:91:51:ba:4c:
         3e:a2:f4:9d:12:c6:70:af:ba:aa:f8:55:1c:b3:16:1a:69:df:
         4c:ac:66:f1:a2:89:e2:2b:f1:71:fe:14:01:9e:f3:ac:1f:77:
         7c:8e:87:1d:4a:64:0b:70:4b:df:c1:a8:ab:43:6c:a0:6c:99:
         47:38:56:69:47:10:ba:52:57:03:62:38:3b:81:db:30:5c:5c:
         f6:f0:17:a8:9f:ea:3a:0b:16:f4:5e:be:84:1d:41:2a:44:17:
         59:d2:2d:a2:d8:0a:33:92:8e:2b:4d:25:d5:c0:f8:47:ee:cf:
         82:28:b7:3c:1b:bf:c1:6f:cd:b2:01:1d:57:2a:c6:a4:48:23:
         71:a0:1b:a1:11:bf:ff:c7:3c:73:fc:98:f2:df:53:e1:6c:34:
         84:cb:7c:f5
-----BEGIN CERTIFICATE-----
MIIDxzCCAq+gAwIBAgIJAKm69EzPysiyMA0GCSqGSIb3DQEBCwUAMEoxCzAJBgNV
BAYTAlNXMRIwEAYDVQQHDAlTdG9ja2hvbG0xDTALBgNVBAoMBEFDTUUxGDAWBgNV
BAMMD09wZW5WUE4tQUNNRS1DQTAeFw0xNjAzMDMxMjU1MzdaFw0xNjAzMDQxMjU1
MzdaMFcxCzAJBgNVBAYTAlNXMRIwEAYDVQQHDAlTdG9ja2hvbG0xDTALBgNVBAoM
BEFDTUUxJTAjBgNVBAMMHHRlbXBvcmFsX2NlcnRpZmljYXRlLmFjbWUuc3cwggEi
MA0GCSqGSIb3DQEBAQUAA4IBDwAwggEKAoIBAQCsCKwpaNhpVffEwf6ofm5uxH5h
THWo14NTmGygV431vHHLigsX1IeD4kuVVauoOPhj1N3VhiaaXDXChs/lQlwlGV6f
CSuZOe+AHap7oxOxOG45GIWbo0+LXbobRo+10XUUNPLqoGRmM/tkKAAwpNhgbH3d
e5D3p/AV68M3oVACTVGp1L3SvZVjTTT9ud+4A5Ghuv4cLdXT3JNW005mvdW49+W3
dJc3JQ0tdtHh+dTNNq1aPw1Wz0UVRqaI5cW2KAwuPdI85yjtnt8h1fKtbgFqK9H2
Lmtb8YeTYAJB2I3VXmJ3U7YOSbVrZfCsuFIToRf0rdWrKVPtYE15XimG6KwZAgMB
AAGjgaIwgZ8wCQYDVR0TBAIwADARBglghkgBhvhCAQEEBAMCB4AwCwYDVR0PBAQD
AgeAMBMGA1UdJQQMMAoGCCsGAQUFBwMCMB0GA1UdDgQWBBSd/96agsszrinGlbK0
avJrm+WtezAfBgNVHSMEGDAWgBRiHgSal71AML/GJL2dXJz77yHL4jAdBgNVHREE
FjAUgRJob3N0bWFzdGVyQGFjbWUuc3cwDQYJKoZIhvcNAQELBQADggEBAJYmRloA
hBIpvTvIFJbB3z/fStfdmPRKJOnRc9fTT2Q2yNL1rl2NaPpj7CWawETsTQ77pAsz
Sjy7PQJrEZBGd5FYUvQZZ/wFxeeFCLbMqSLXev5DoeIokQIG+S4edoqlUIII0Fp6
wTJrkVG6TD6i9J0SxnCvuqr4VRyzFhpp30ysZvGiieIr8XH+FAGe86wfd3yOhx1K
ZAtwS9/BqKtDbKBsmUc4VmlHELpSVwNiODuB2zBcXPbwF6if6joLFvRevoQdQSpE
F1nSLaLYCjOSjitNJdXA+Efuz4Iotzwbv8FvzbIBHVcqxqRII3GgG6ERv//HPHP8
mPLfU+FsNITLfPU=
-----END CERTIFICATE-----
