Certificate:
    Data:
        Version: 3 (0x2)
        Serial Number:
            a9:ba:f4:4c:cf:ca:c8:d9
    Signature Algorithm: sha256WithRSAEncryption
        Issuer: C=SW, L=Stockholm, O=ACME, CN=OpenVPN-ACME-CA
        Validity
            Not Before: Mar  7 12:24:54 2016 GMT
            Not After : Mar  8 12:24:54 2016 GMT
        Subject: C=SW, L=Stockholm, O=ACME, CN=temporal_certificate_1457353493.acme.sw
        Subject Public Key Info:
            Public Key Algorithm: rsaEncryption
                Public-Key: (2048 bit)
                Modulus:
                    00:a6:09:1c:2e:f4:25:bd:8b:3f:ef:26:48:da:8e:
                    88:7c:e1:d8:b8:af:17:37:05:36:b2:5f:8d:c0:b5:
                    5b:87:94:fb:24:94:c6:e4:8d:b0:4b:86:a3:62:6b:
                    64:e1:6b:f5:32:fb:61:eb:a4:7a:8d:42:d8:c0:6f:
                    de:e6:da:c5:9b:ec:b4:d7:e1:e0:e6:1d:7f:8d:fd:
                    86:d0:61:80:81:e5:d9:b3:2f:62:ab:77:2c:91:b0:
                    fd:f9:48:7c:0a:7b:c1:f2:5b:79:53:0d:0c:cb:e3:
                    c0:6f:4a:83:2c:6b:1f:81:d9:9f:d6:8d:ae:1f:16:
                    dd:91:50:ae:ca:aa:e8:83:b0:2a:1c:ba:29:80:8f:
                    ce:f6:6f:13:c5:bb:43:5a:dc:50:ed:52:bd:0f:ab:
                    6f:95:7d:e1:6d:71:15:3c:24:d2:66:a2:e6:d6:71:
                    4c:47:2f:c2:89:ae:7c:b7:e7:5c:97:a2:b6:3e:ea:
                    98:4a:da:09:1d:97:57:d1:14:72:f0:73:96:fd:03:
                    03:03:f7:5e:a6:95:38:13:d6:36:f3:49:d4:e2:98:
                    1b:75:5c:de:99:8e:20:21:b0:92:61:3e:78:ba:a5:
                    98:da:fe:23:23:bd:78:58:30:b1:31:50:f7:3f:17:
                    b0:3a:01:26:48:3e:ec:76:2c:70:bb:4d:81:08:a3:
                    ff:9b
                Exponent: 65537 (0x10001)
        X509v3 extensions:
            X509v3 Basic Constraints: 
                CA:FALSE
            Netscape Cert Type: 
                SSL Client
            X509v3 Key Usage: 
                Digital Signature
            X509v3 Extended Key Usage: 
                TLS Web Client Authentication
            X509v3 Subject Key Identifier: 
                3D:C8:98:18:29:46:06:07:DE:DE:84:15:36:71:80:DD:A7:C8:F7:F5
            X509v3 Authority Key Identifier: 
                keyid:62:1E:04:9A:97:BD:40:30:BF:C6:24:BD:9D:5C:9C:FB:EF:21:CB:E2

            X509v3 Subject Alternative Name: 
                email:hostmaster@acme.sw
    Signature Algorithm: sha256WithRSAEncryption
         55:cd:f4:ce:aa:a5:35:81:52:cb:2c:c5:51:47:29:db:8b:d5:
         a4:f4:02:26:38:32:fa:75:c8:5b:ab:3c:d7:bd:29:7d:91:a3:
         43:4c:d1:e4:e6:26:a9:6d:bd:0a:aa:bb:be:37:45:f3:e0:3c:
         09:07:09:4a:34:49:79:99:41:f6:af:ab:f3:d6:03:8e:0f:39:
         68:0c:18:2c:69:1e:a1:d5:5d:5e:63:8e:08:33:e4:c5:57:58:
         e0:e2:e0:84:6c:d4:40:d1:f5:fb:32:f1:d4:89:11:ec:d4:97:
         a7:bf:c4:0e:ef:2b:83:40:95:fb:d9:62:64:60:bf:0d:17:0a:
         19:aa:10:50:11:f3:6e:1d:a0:da:e3:9d:e6:f2:a1:61:34:a3:
         2b:f8:aa:82:e2:a7:1a:3e:7f:a6:5c:73:4e:ff:56:d2:12:99:
         0a:18:7d:47:13:b4:db:b0:58:97:3f:b6:ed:23:dd:b8:e9:44:
         26:84:58:41:2d:53:1e:3f:24:36:04:a7:ed:57:14:9d:e0:9f:
         1c:f5:f8:98:e9:1b:be:fa:91:79:9c:ea:0f:da:ba:8d:59:0e:
         8f:2e:df:a6:c7:9d:6e:66:b5:13:f7:98:c4:e4:42:98:1a:2e:
         ed:4c:6f:2d:ef:b2:1a:9a:ef:36:79:e4:47:67:14:ab:78:a2:
         f6:0e:07:0a
-----BEGIN CERTIFICATE-----
MIID0jCCArqgAwIBAgIJAKm69EzPysjZMA0GCSqGSIb3DQEBCwUAMEoxCzAJBgNV
BAYTAlNXMRIwEAYDVQQHDAlTdG9ja2hvbG0xDTALBgNVBAoMBEFDTUUxGDAWBgNV
BAMMD09wZW5WUE4tQUNNRS1DQTAeFw0xNjAzMDcxMjI0NTRaFw0xNjAzMDgxMjI0
NTRaMGIxCzAJBgNVBAYTAlNXMRIwEAYDVQQHDAlTdG9ja2hvbG0xDTALBgNVBAoM
BEFDTUUxMDAuBgNVBAMMJ3RlbXBvcmFsX2NlcnRpZmljYXRlXzE0NTczNTM0OTMu
YWNtZS5zdzCCASIwDQYJKoZIhvcNAQEBBQADggEPADCCAQoCggEBAKYJHC70Jb2L
P+8mSNqOiHzh2LivFzcFNrJfjcC1W4eU+ySUxuSNsEuGo2JrZOFr9TL7Yeukeo1C
2MBv3ubaxZvstNfh4OYdf439htBhgIHl2bMvYqt3LJGw/flIfAp7wfJbeVMNDMvj
wG9KgyxrH4HZn9aNrh8W3ZFQrsqq6IOwKhy6KYCPzvZvE8W7Q1rcUO1SvQ+rb5V9
4W1xFTwk0mai5tZxTEcvwomufLfnXJeitj7qmEraCR2XV9EUcvBzlv0DAwP3XqaV
OBPWNvNJ1OKYG3Vc3pmOICGwkmE+eLqlmNr+IyO9eFgwsTFQ9z8XsDoBJkg+7HYs
cLtNgQij/5sCAwEAAaOBojCBnzAJBgNVHRMEAjAAMBEGCWCGSAGG+EIBAQQEAwIH
gDALBgNVHQ8EBAMCB4AwEwYDVR0lBAwwCgYIKwYBBQUHAwIwHQYDVR0OBBYEFD3I
mBgpRgYH3t6EFTZxgN2nyPf1MB8GA1UdIwQYMBaAFGIeBJqXvUAwv8YkvZ1cnPvv
IcviMB0GA1UdEQQWMBSBEmhvc3RtYXN0ZXJAYWNtZS5zdzANBgkqhkiG9w0BAQsF
AAOCAQEAVc30zqqlNYFSyyzFUUcp24vVpPQCJjgy+nXIW6s8170pfZGjQ0zR5OYm
qW29Cqq7vjdF8+A8CQcJSjRJeZlB9q+r89YDjg85aAwYLGkeodVdXmOOCDPkxVdY
4OLghGzUQNH1+zLx1IkR7NSXp7/EDu8rg0CV+9liZGC/DRcKGaoQUBHzbh2g2uOd
5vKhYTSjK/iqguKnGj5/plxzTv9W0hKZChh9RxO027BYlz+27SPduOlEJoRYQS1T
Hj8kNgSn7VcUneCfHPX4mOkbvvqReZzqD9q6jVkOjy7fpsedbma1E/eYxORCmBou
7UxvLe+yGprvNnnkR2cUq3ii9g4HCg==
-----END CERTIFICATE-----
