Certificate:
    Data:
        Version: 3 (0x2)
        Serial Number:
            a9:ba:f4:4c:cf:ca:c8:c5
    Signature Algorithm: sha256WithRSAEncryption
        Issuer: C=SW, L=Stockholm, O=ACME, CN=OpenVPN-ACME-CA
        Validity
            Not Before: Mar  3 13:08:00 2016 GMT
            Not After : Mar  4 13:08:00 2016 GMT
        Subject: C=SW, L=Stockholm, O=ACME, CN=temporal_certificate.acme.sw
        Subject Public Key Info:
            Public Key Algorithm: rsaEncryption
                Public-Key: (2048 bit)
                Modulus:
                    00:b7:8f:1f:03:a5:ec:7d:32:78:ee:06:8d:79:57:
                    44:bf:30:27:a2:84:b6:0d:e3:46:c1:fb:bf:58:3a:
                    12:2c:71:ad:a2:d9:35:e0:b2:d6:32:3c:40:b4:64:
                    60:79:49:d8:27:27:20:69:b5:a2:c0:91:32:91:c8:
                    49:2e:37:89:90:bf:0f:0a:e4:d5:48:99:af:ed:2e:
                    8d:b5:f2:98:1c:0c:9b:8e:28:c7:a8:70:c2:45:95:
                    db:d4:83:a1:44:cc:0c:3b:5c:96:b7:be:a2:6e:3b:
                    c2:14:da:1e:10:2f:65:32:56:9c:51:ef:86:52:7f:
                    e7:15:42:e8:4e:56:f0:8e:01:7b:9b:ec:9e:fc:bd:
                    23:85:45:9e:31:c4:01:99:41:11:68:59:77:b5:71:
                    fb:ff:fe:fb:2f:00:ad:12:9c:a8:95:f7:ff:1a:38:
                    62:43:6c:e3:c7:cc:1f:1e:d6:2d:5b:0e:ad:e6:e5:
                    83:b4:be:02:b1:74:be:f0:ab:99:06:b0:4d:2a:eb:
                    70:5a:d6:8b:bf:06:ba:f7:e4:94:1f:b6:40:dd:09:
                    02:83:52:15:b3:bb:dd:7f:80:57:cb:c7:2e:05:73:
                    10:32:e7:7a:f8:87:5d:e0:bb:73:0e:32:25:e9:f1:
                    03:6d:e6:1c:c3:45:9b:ef:a1:f4:96:f9:48:ba:9e:
                    a6:3d
                Exponent: 65537 (0x10001)
        X509v3 extensions:
            X509v3 Basic Constraints: 
                CA:FALSE
            Netscape Cert Type: 
                SSL Client
            X509v3 Key Usage: 
                Digital Signature
            X509v3 Extended Key Usage: 
                TLS Web Client Authentication
            X509v3 Subject Key Identifier: 
                6C:06:C0:22:C7:80:4F:19:9E:72:E4:5F:2D:16:B3:5C:AA:E9:99:1C
            X509v3 Authority Key Identifier: 
                keyid:62:1E:04:9A:97:BD:40:30:BF:C6:24:BD:9D:5C:9C:FB:EF:21:CB:E2

            X509v3 Subject Alternative Name: 
                email:hostmaster@acme.sw
    Signature Algorithm: sha256WithRSAEncryption
         9a:a3:a8:95:1f:af:a9:36:2b:5a:a2:0e:40:b7:8e:65:3c:e3:
         4f:a4:8c:b3:29:bb:bb:c6:90:58:64:f7:59:98:5e:b8:b8:5d:
         bc:d0:00:63:af:b1:90:7a:22:3f:e4:df:97:6d:a1:63:bb:19:
         ab:b2:e1:7a:dd:06:9d:ae:ec:fa:fe:30:b4:cb:c1:78:7b:2c:
         45:09:66:4b:26:db:35:04:4d:27:6e:6b:d5:2a:08:53:7a:5d:
         f6:2e:89:d7:fb:bb:fc:1b:91:35:38:0f:32:d0:80:7c:70:ef:
         a4:49:d0:6c:be:66:ab:66:45:76:5e:0a:25:0f:59:4c:61:38:
         e9:1c:1e:cf:25:38:f7:aa:dc:f9:b8:93:31:71:72:ed:f0:5e:
         4e:44:fb:48:a2:1d:d4:fa:5d:a4:e9:f6:a2:16:d4:6a:cd:ce:
         d1:da:bc:5f:4c:ff:ee:d7:da:e2:c2:3a:49:21:5f:eb:7b:fa:
         d5:8e:f5:58:3f:07:d5:76:a7:2e:43:d1:42:31:e1:5c:13:aa:
         42:49:39:74:5c:b4:ce:c1:c8:4d:30:7e:8e:f5:96:5c:45:86:
         bc:bf:d8:8f:34:6f:31:f0:4d:bb:54:63:5a:ea:60:9c:d6:1a:
         2f:4a:e7:75:5d:c4:cd:5d:10:22:dc:c9:19:b2:ee:55:90:85:
         20:43:9f:ca
-----BEGIN CERTIFICATE-----
MIIDxzCCAq+gAwIBAgIJAKm69EzPysjFMA0GCSqGSIb3DQEBCwUAMEoxCzAJBgNV
BAYTAlNXMRIwEAYDVQQHDAlTdG9ja2hvbG0xDTALBgNVBAoMBEFDTUUxGDAWBgNV
BAMMD09wZW5WUE4tQUNNRS1DQTAeFw0xNjAzMDMxMzA4MDBaFw0xNjAzMDQxMzA4
MDBaMFcxCzAJBgNVBAYTAlNXMRIwEAYDVQQHDAlTdG9ja2hvbG0xDTALBgNVBAoM
BEFDTUUxJTAjBgNVBAMMHHRlbXBvcmFsX2NlcnRpZmljYXRlLmFjbWUuc3cwggEi
MA0GCSqGSIb3DQEBAQUAA4IBDwAwggEKAoIBAQC3jx8Dpex9MnjuBo15V0S/MCei
hLYN40bB+79YOhIsca2i2TXgstYyPEC0ZGB5SdgnJyBptaLAkTKRyEkuN4mQvw8K
5NVIma/tLo218pgcDJuOKMeocMJFldvUg6FEzAw7XJa3vqJuO8IU2h4QL2UyVpxR
74ZSf+cVQuhOVvCOAXub7J78vSOFRZ4xxAGZQRFoWXe1cfv//vsvAK0SnKiV9/8a
OGJDbOPHzB8e1i1bDq3m5YO0vgKxdL7wq5kGsE0q63Ba1ou/Brr35JQftkDdCQKD
UhWzu91/gFfLxy4FcxAy53r4h13gu3MOMiXp8QNt5hzDRZvvofSW+Ui6nqY9AgMB
AAGjgaIwgZ8wCQYDVR0TBAIwADARBglghkgBhvhCAQEEBAMCB4AwCwYDVR0PBAQD
AgeAMBMGA1UdJQQMMAoGCCsGAQUFBwMCMB0GA1UdDgQWBBRsBsAix4BPGZ5y5F8t
FrNcqumZHDAfBgNVHSMEGDAWgBRiHgSal71AML/GJL2dXJz77yHL4jAdBgNVHREE
FjAUgRJob3N0bWFzdGVyQGFjbWUuc3cwDQYJKoZIhvcNAQELBQADggEBAJqjqJUf
r6k2K1qiDkC3jmU840+kjLMpu7vGkFhk91mYXri4XbzQAGOvsZB6Ij/k35dtoWO7
Gauy4XrdBp2u7Pr+MLTLwXh7LEUJZksm2zUETSdua9UqCFN6XfYuidf7u/wbkTU4
DzLQgHxw76RJ0Gy+ZqtmRXZeCiUPWUxhOOkcHs8lOPeq3Pm4kzFxcu3wXk5E+0ii
HdT6XaTp9qIW1GrNztHavF9M/+7X2uLCOkkhX+t7+tWO9Vg/B9V2py5D0UIx4VwT
qkJJOXRctM7ByE0wfo71llxFhry/2I80bzHwTbtUY1rqYJzWGi9K53VdxM1dECLc
yRmy7lWQhSBDn8o=
-----END CERTIFICATE-----
