Certificate:
    Data:
        Version: 3 (0x2)
        Serial Number:
            a9:ba:f4:4c:cf:ca:c8:b3
    Signature Algorithm: sha256WithRSAEncryption
        Issuer: C=SW, L=Stockholm, O=ACME, CN=OpenVPN-ACME-CA
        Validity
            Not Before: Mar  3 12:57:04 2016 GMT
            Not After : Mar  4 12:57:04 2016 GMT
        Subject: C=SW, L=Stockholm, O=ACME, CN=temporal_certificate.acme.sw
        Subject Public Key Info:
            Public Key Algorithm: rsaEncryption
                Public-Key: (2048 bit)
                Modulus:
                    00:c8:1f:f0:f4:f7:32:e4:c2:ea:d8:b9:6a:53:69:
                    c1:24:a9:1c:7a:1c:6b:fc:0e:af:f6:15:55:0b:f5:
                    8b:0b:d8:78:28:ae:f1:e0:dd:4a:44:2b:a8:ec:e6:
                    52:58:9f:9f:c9:18:7c:21:89:1d:b4:b8:35:3b:09:
                    bd:3a:7c:43:91:65:46:cc:7b:2c:07:a5:b4:5a:00:
                    96:cf:b0:1c:8d:bb:13:54:cb:2b:ce:3f:b2:7e:a9:
                    2f:e1:50:65:8f:4d:4a:85:22:29:1c:77:0c:a7:a3:
                    95:96:cf:5b:58:ca:42:61:03:9f:16:e8:3e:f2:7e:
                    ef:f9:58:dd:1c:8d:78:e5:a8:bc:55:9a:d1:ae:01:
                    15:9a:28:79:9e:41:21:d1:5b:9e:ab:b1:da:7a:7d:
                    bf:12:be:b3:a8:b8:b1:ef:94:88:ea:d1:7d:a4:a3:
                    17:83:41:dd:73:a2:fb:f4:5d:a1:9a:45:13:82:e3:
                    53:85:8e:d6:89:5f:72:67:27:d4:3b:e6:af:f2:7d:
                    fc:33:9a:b3:c6:5d:76:12:8a:36:80:6f:68:be:fa:
                    b3:ff:c3:48:c5:59:8b:78:ca:e6:c1:e6:c5:a5:c9:
                    ea:bf:ec:6e:6f:c4:99:c4:d0:87:41:b0:8c:a0:ec:
                    a2:00:93:ed:a6:e0:09:76:26:f4:40:77:a0:1f:f5:
                    80:d9
                Exponent: 65537 (0x10001)
        X509v3 extensions:
            X509v3 Basic Constraints: 
                CA:FALSE
            Netscape Cert Type: 
                SSL Client
            X509v3 Key Usage: 
                Digital Signature
            X509v3 Extended Key Usage: 
                TLS Web Client Authentication
            X509v3 Subject Key Identifier: 
                9D:B5:5B:E7:8D:1A:D9:5A:D9:06:B8:C6:22:34:3F:E1:0E:5F:52:93
            X509v3 Authority Key Identifier: 
                keyid:62:1E:04:9A:97:BD:40:30:BF:C6:24:BD:9D:5C:9C:FB:EF:21:CB:E2

            X509v3 Subject Alternative Name: 
                email:hostmaster@acme.sw
    Signature Algorithm: sha256WithRSAEncryption
         af:3b:be:d7:93:50:27:e4:49:47:16:e4:16:28:7c:06:3f:d6:
         7b:05:46:39:2c:b1:ad:37:aa:27:b1:d3:fb:68:a5:ff:cf:45:
         57:8d:5f:54:b5:dc:f2:8a:37:f2:33:8a:2e:d9:2e:09:58:c1:
         d7:30:06:0e:4a:90:22:8c:77:ee:9d:3b:cd:33:fb:cd:28:02:
         d2:f5:86:48:4c:30:7c:bf:1a:59:3a:7f:a1:aa:a2:8c:58:b2:
         18:70:b0:8b:3c:fb:74:e4:20:5b:93:c5:54:ec:2c:a7:55:aa:
         3e:e1:36:d6:4e:41:f7:74:e1:41:06:3d:93:2c:9d:73:db:58:
         5b:f4:fc:2d:8d:6e:49:53:e1:d7:38:35:89:aa:00:ec:88:d9:
         b6:24:a3:76:f6:34:ea:3c:18:64:98:e9:ad:ae:3c:db:5c:07:
         a5:a8:d7:60:5e:30:02:ce:6b:03:ea:7d:e7:b7:69:7d:36:8f:
         f7:a8:cb:46:8e:69:18:ab:a7:9f:6c:19:be:c2:cd:8b:b7:a2:
         03:bf:74:fc:aa:c9:db:a1:c6:b0:d1:f3:43:1e:02:5a:9b:4e:
         0c:32:9f:a3:2d:71:31:45:ec:ff:25:83:63:20:4d:ee:57:c1:
         4b:af:2b:9d:09:4e:74:46:24:b1:97:66:5b:e2:49:75:89:e3:
         16:87:7f:d9
-----BEGIN CERTIFICATE-----
MIIDxzCCAq+gAwIBAgIJAKm69EzPysizMA0GCSqGSIb3DQEBCwUAMEoxCzAJBgNV
BAYTAlNXMRIwEAYDVQQHDAlTdG9ja2hvbG0xDTALBgNVBAoMBEFDTUUxGDAWBgNV
BAMMD09wZW5WUE4tQUNNRS1DQTAeFw0xNjAzMDMxMjU3MDRaFw0xNjAzMDQxMjU3
MDRaMFcxCzAJBgNVBAYTAlNXMRIwEAYDVQQHDAlTdG9ja2hvbG0xDTALBgNVBAoM
BEFDTUUxJTAjBgNVBAMMHHRlbXBvcmFsX2NlcnRpZmljYXRlLmFjbWUuc3cwggEi
MA0GCSqGSIb3DQEBAQUAA4IBDwAwggEKAoIBAQDIH/D09zLkwurYuWpTacEkqRx6
HGv8Dq/2FVUL9YsL2HgorvHg3UpEK6js5lJYn5/JGHwhiR20uDU7Cb06fEORZUbM
eywHpbRaAJbPsByNuxNUyyvOP7J+qS/hUGWPTUqFIikcdwyno5WWz1tYykJhA58W
6D7yfu/5WN0cjXjlqLxVmtGuARWaKHmeQSHRW56rsdp6fb8SvrOouLHvlIjq0X2k
oxeDQd1zovv0XaGaRROC41OFjtaJX3JnJ9Q75q/yffwzmrPGXXYSijaAb2i++rP/
w0jFWYt4yubB5sWlyeq/7G5vxJnE0IdBsIyg7KIAk+2m4Al2JvRAd6Af9YDZAgMB
AAGjgaIwgZ8wCQYDVR0TBAIwADARBglghkgBhvhCAQEEBAMCB4AwCwYDVR0PBAQD
AgeAMBMGA1UdJQQMMAoGCCsGAQUFBwMCMB0GA1UdDgQWBBSdtVvnjRrZWtkGuMYi
ND/hDl9SkzAfBgNVHSMEGDAWgBRiHgSal71AML/GJL2dXJz77yHL4jAdBgNVHREE
FjAUgRJob3N0bWFzdGVyQGFjbWUuc3cwDQYJKoZIhvcNAQELBQADggEBAK87vteT
UCfkSUcW5BYofAY/1nsFRjkssa03qiex0/topf/PRVeNX1S13PKKN/Izii7ZLglY
wdcwBg5KkCKMd+6dO80z+80oAtL1hkhMMHy/Glk6f6GqooxYshhwsIs8+3TkIFuT
xVTsLKdVqj7hNtZOQfd04UEGPZMsnXPbWFv0/C2NbklT4dc4NYmqAOyI2bYko3b2
NOo8GGSY6a2uPNtcB6Wo12BeMALOawPqfee3aX02j/eoy0aOaRirp59sGb7CzYu3
ogO/dPyqyduhxrDR80MeAlqbTgwyn6MtcTFF7P8lg2MgTe5XwUuvK50JTnRGJLGX
ZlviSXWJ4xaHf9k=
-----END CERTIFICATE-----
