Certificate:
    Data:
        Version: 3 (0x2)
        Serial Number:
            a9:ba:f4:4c:cf:ca:c8:c1
    Signature Algorithm: sha256WithRSAEncryption
        Issuer: C=SW, L=Stockholm, O=ACME, CN=OpenVPN-ACME-CA
        Validity
            Not Before: Mar  3 13:06:36 2016 GMT
            Not After : Mar  4 13:06:36 2016 GMT
        Subject: C=SW, L=Stockholm, O=ACME, CN=temporal_certificate.acme.sw
        Subject Public Key Info:
            Public Key Algorithm: rsaEncryption
                Public-Key: (2048 bit)
                Modulus:
                    00:c4:d7:4d:e9:44:03:62:9c:b5:f6:97:44:3b:72:
                    1e:a7:37:6a:5f:b0:3e:a3:69:13:ed:e2:41:16:2c:
                    b3:fe:c4:58:43:16:10:2d:e2:c7:8e:89:b1:72:01:
                    97:53:7a:3c:c4:bb:a0:bd:07:a7:5b:c6:cd:de:33:
                    17:8e:dd:69:3a:dd:d1:27:7f:9c:b7:5f:36:79:ab:
                    67:5d:e5:42:e3:98:21:b7:e7:1b:c4:88:f0:9b:7b:
                    ab:a1:cc:55:8e:a5:1e:15:b8:53:dd:b3:a6:d4:03:
                    c4:2d:d5:db:e0:fe:0f:20:2c:c7:4d:d9:81:ad:dd:
                    31:20:e5:8c:16:41:18:95:a8:be:a8:c8:55:a1:c4:
                    86:92:39:56:b9:f1:5f:c2:cc:26:03:94:62:4c:2a:
                    55:a6:fb:08:63:c7:67:a3:93:b7:27:92:f9:e3:d2:
                    24:d8:af:62:a4:c5:47:3c:22:26:c4:e3:32:dc:fd:
                    4f:a2:1f:1a:b9:2d:d9:91:8e:4a:3d:4f:ad:bc:4f:
                    d9:a0:0a:6c:2f:3d:23:e2:8e:0c:2e:af:c0:4e:36:
                    44:b7:28:d3:94:8d:c0:44:c8:cd:59:6b:37:46:94:
                    e1:7c:b8:28:1e:93:d7:a3:ec:44:9e:e1:41:b5:c1:
                    5a:04:9d:2c:1b:b5:de:1b:97:2d:e3:52:7d:a1:a6:
                    f6:07
                Exponent: 65537 (0x10001)
        X509v3 extensions:
            X509v3 Basic Constraints: 
                CA:FALSE
            Netscape Cert Type: 
                SSL Client
            X509v3 Key Usage: 
                Digital Signature
            X509v3 Extended Key Usage: 
                TLS Web Client Authentication
            X509v3 Subject Key Identifier: 
                CD:00:06:32:31:4F:63:A9:D7:D3:09:B5:9C:94:52:0A:04:65:1C:49
            X509v3 Authority Key Identifier: 
                keyid:62:1E:04:9A:97:BD:40:30:BF:C6:24:BD:9D:5C:9C:FB:EF:21:CB:E2

            X509v3 Subject Alternative Name: 
                email:hostmaster@acme.sw
    Signature Algorithm: sha256WithRSAEncryption
         bc:fd:65:0f:47:a5:5d:b6:37:c7:25:c8:cc:6b:24:83:18:d1:
         e6:67:a6:d3:85:0e:e8:a3:78:f4:5a:fd:cf:fd:78:34:c6:8e:
         c6:cb:cd:bc:96:49:db:3e:c8:28:01:44:35:d9:70:1e:22:9e:
         5b:74:56:17:4f:6f:d6:c1:b1:43:17:36:94:a9:5b:8d:44:d6:
         8d:e4:69:1e:e3:17:22:50:04:15:8d:cb:96:23:44:2b:19:f0:
         24:2e:5a:ab:da:60:5d:4a:2f:fb:28:15:3c:fe:10:f8:40:0d:
         27:0e:27:82:e4:98:cb:62:e9:1e:bd:71:34:a8:94:2b:ff:89:
         b9:ea:63:eb:c7:8f:63:2d:f9:df:c2:34:f6:d0:bb:e5:c7:df:
         26:e1:02:6b:be:7c:ef:e9:44:d4:23:02:ef:bb:a9:47:0f:35:
         d0:05:2e:4f:46:cc:10:3c:73:b1:2e:0d:be:f5:3d:7a:14:70:
         8e:3c:16:ee:74:2f:7b:70:1e:6d:33:77:e0:55:f6:c7:00:bf:
         46:76:40:00:2e:54:63:dd:e4:d9:cd:ef:fe:ca:aa:c3:24:2f:
         c3:54:37:f5:62:44:e3:a4:3b:d8:cd:e5:59:ef:af:56:18:f4:
         1e:22:9e:f1:9b:f0:68:cb:b4:db:46:f6:8d:d7:22:32:ca:2f:
         67:16:dc:b6
-----BEGIN CERTIFICATE-----
MIIDxzCCAq+gAwIBAgIJAKm69EzPysjBMA0GCSqGSIb3DQEBCwUAMEoxCzAJBgNV
BAYTAlNXMRIwEAYDVQQHDAlTdG9ja2hvbG0xDTALBgNVBAoMBEFDTUUxGDAWBgNV
BAMMD09wZW5WUE4tQUNNRS1DQTAeFw0xNjAzMDMxMzA2MzZaFw0xNjAzMDQxMzA2
MzZaMFcxCzAJBgNVBAYTAlNXMRIwEAYDVQQHDAlTdG9ja2hvbG0xDTALBgNVBAoM
BEFDTUUxJTAjBgNVBAMMHHRlbXBvcmFsX2NlcnRpZmljYXRlLmFjbWUuc3cwggEi
MA0GCSqGSIb3DQEBAQUAA4IBDwAwggEKAoIBAQDE103pRANinLX2l0Q7ch6nN2pf
sD6jaRPt4kEWLLP+xFhDFhAt4seOibFyAZdTejzEu6C9B6dbxs3eMxeO3Wk63dEn
f5y3XzZ5q2dd5ULjmCG35xvEiPCbe6uhzFWOpR4VuFPds6bUA8Qt1dvg/g8gLMdN
2YGt3TEg5YwWQRiVqL6oyFWhxIaSOVa58V/CzCYDlGJMKlWm+whjx2ejk7cnkvnj
0iTYr2KkxUc8IibE4zLc/U+iHxq5LdmRjko9T628T9mgCmwvPSPijgwur8BONkS3
KNOUjcBEyM1ZazdGlOF8uCgek9ej7ESe4UG1wVoEnSwbtd4bly3jUn2hpvYHAgMB
AAGjgaIwgZ8wCQYDVR0TBAIwADARBglghkgBhvhCAQEEBAMCB4AwCwYDVR0PBAQD
AgeAMBMGA1UdJQQMMAoGCCsGAQUFBwMCMB0GA1UdDgQWBBTNAAYyMU9jqdfTCbWc
lFIKBGUcSTAfBgNVHSMEGDAWgBRiHgSal71AML/GJL2dXJz77yHL4jAdBgNVHREE
FjAUgRJob3N0bWFzdGVyQGFjbWUuc3cwDQYJKoZIhvcNAQELBQADggEBALz9ZQ9H
pV22N8clyMxrJIMY0eZnptOFDuijePRa/c/9eDTGjsbLzbyWSds+yCgBRDXZcB4i
nlt0VhdPb9bBsUMXNpSpW41E1o3kaR7jFyJQBBWNy5YjRCsZ8CQuWqvaYF1KL/so
FTz+EPhADScOJ4LkmMti6R69cTSolCv/ibnqY+vHj2Mt+d/CNPbQu+XH3ybhAmu+
fO/pRNQjAu+7qUcPNdAFLk9GzBA8c7EuDb71PXoUcI48Fu50L3twHm0zd+BV9scA
v0Z2QAAuVGPd5NnN7/7KqsMkL8NUN/ViROOkO9jN5Vnvr1YY9B4invGb8GjLtNtG
9o3XIjLKL2cW3LY=
-----END CERTIFICATE-----
