Certificate:
    Data:
        Version: 3 (0x2)
        Serial Number:
            a9:ba:f4:4c:cf:ca:c8:ac
    Signature Algorithm: sha256WithRSAEncryption
        Issuer: C=SW, L=Stockholm, O=ACME, CN=OpenVPN-ACME-CA
        Validity
            Not Before: Mar  3 12:38:47 2016 GMT
            Not After : Mar  4 12:38:47 2016 GMT
        Subject: C=SW, L=Stockholm, O=ACME, CN=temp.acme.sw
        Subject Public Key Info:
            Public Key Algorithm: rsaEncryption
                Public-Key: (2048 bit)
                Modulus:
                    00:c6:8d:59:29:95:d8:83:ee:50:0b:05:1d:8b:69:
                    3d:6b:62:ce:f1:f9:8d:02:b5:d4:b7:e2:8e:41:46:
                    d1:d5:0b:b1:9d:f2:b8:bb:63:ed:ac:e6:d1:14:4a:
                    c9:64:be:73:3f:95:d3:4c:c9:82:a9:c6:c4:4b:14:
                    91:83:f2:ec:4a:d0:3f:a6:d8:04:1c:90:0e:19:8d:
                    7f:e8:41:c2:76:d5:18:68:59:c2:30:d4:24:d0:24:
                    47:1d:e4:87:6d:31:b9:e4:31:5c:46:86:59:a6:9c:
                    2d:5c:f5:65:ea:54:37:eb:4e:b6:23:dc:a2:68:a3:
                    42:c4:34:49:60:0a:cc:8e:24:e5:2d:37:21:a7:9a:
                    57:f2:bf:a5:ee:1d:cf:db:a1:6c:97:c6:cf:31:fa:
                    35:fe:ca:40:cf:2e:ed:15:8d:1f:07:45:97:10:ba:
                    2c:b1:03:67:61:95:35:b3:c9:5c:04:d9:91:9f:e8:
                    35:df:00:84:94:78:11:20:bc:2a:83:68:cc:ac:2c:
                    00:a4:1e:ba:64:69:b1:4f:2f:f5:01:dd:d0:93:b3:
                    b8:b3:d8:fc:4d:48:92:75:4a:b6:d6:1f:d5:83:5f:
                    f7:07:19:66:47:51:a3:9d:f1:6d:a5:1f:a6:67:e8:
                    91:ba:31:20:60:6b:73:3d:42:22:8f:1e:71:d3:e1:
                    cf:25
                Exponent: 65537 (0x10001)
        X509v3 extensions:
            X509v3 Basic Constraints: 
                CA:FALSE
            Netscape Cert Type: 
                SSL Client
            X509v3 Key Usage: 
                Digital Signature
            X509v3 Extended Key Usage: 
                TLS Web Client Authentication
            X509v3 Subject Key Identifier: 
                09:02:8C:9D:27:36:85:6A:10:CD:9E:5A:EA:6D:35:2F:1D:CA:5E:93
            X509v3 Authority Key Identifier: 
                keyid:62:1E:04:9A:97:BD:40:30:BF:C6:24:BD:9D:5C:9C:FB:EF:21:CB:E2

            X509v3 Subject Alternative Name: 
                email:hostmaster@acme.sw
    Signature Algorithm: sha256WithRSAEncryption
         ad:57:ee:70:3b:fd:26:e3:e5:ee:f5:d0:70:06:9a:d0:f3:4a:
         0a:49:60:cf:67:3f:af:e7:79:4c:b6:d7:81:f6:73:a4:89:d7:
         4e:f0:70:06:13:9d:55:ee:43:5e:14:e6:d9:70:fc:cf:94:a3:
         37:9e:db:90:b9:2c:f3:92:14:87:91:48:e4:e1:bb:ed:6c:85:
         63:bb:3d:4c:43:8a:d9:11:20:44:9a:7e:01:6f:29:31:a8:d5:
         bc:a2:6d:c0:44:0d:25:dd:cd:38:5a:d9:3e:4f:85:e7:6d:82:
         e9:2e:dd:30:71:f9:cf:06:de:2d:ab:2b:2f:8e:fc:f2:a0:71:
         75:a7:19:c7:04:09:d5:3b:dc:74:ee:a3:c0:49:fc:05:94:e0:
         61:ee:90:4d:80:f9:7d:9f:fe:f5:58:c0:62:e5:09:39:c9:8d:
         57:90:21:ad:67:5a:18:bd:5c:88:50:aa:41:18:fc:52:bf:4c:
         19:86:bd:76:9b:3c:48:37:d6:f5:3c:59:e8:bf:d4:27:a0:8f:
         5d:72:ad:6b:9e:86:34:e0:38:ea:0a:6b:1f:51:73:de:a1:e9:
         dd:a0:b4:ae:87:b3:9e:61:3b:1c:1c:16:73:2f:00:10:35:dd:
         54:47:32:6c:71:9b:57:d5:b0:e7:3b:71:e1:af:f6:71:30:c4:
         e1:28:23:c4
-----BEGIN CERTIFICATE-----
MIIDtzCCAp+gAwIBAgIJAKm69EzPysisMA0GCSqGSIb3DQEBCwUAMEoxCzAJBgNV
BAYTAlNXMRIwEAYDVQQHDAlTdG9ja2hvbG0xDTALBgNVBAoMBEFDTUUxGDAWBgNV
BAMMD09wZW5WUE4tQUNNRS1DQTAeFw0xNjAzMDMxMjM4NDdaFw0xNjAzMDQxMjM4
NDdaMEcxCzAJBgNVBAYTAlNXMRIwEAYDVQQHDAlTdG9ja2hvbG0xDTALBgNVBAoM
BEFDTUUxFTATBgNVBAMMDHRlbXAuYWNtZS5zdzCCASIwDQYJKoZIhvcNAQEBBQAD
ggEPADCCAQoCggEBAMaNWSmV2IPuUAsFHYtpPWtizvH5jQK11LfijkFG0dULsZ3y
uLtj7azm0RRKyWS+cz+V00zJgqnGxEsUkYPy7ErQP6bYBByQDhmNf+hBwnbVGGhZ
wjDUJNAkRx3kh20xueQxXEaGWaacLVz1ZepUN+tOtiPcomijQsQ0SWAKzI4k5S03
IaeaV/K/pe4dz9uhbJfGzzH6Nf7KQM8u7RWNHwdFlxC6LLEDZ2GVNbPJXATZkZ/o
Nd8AhJR4ESC8KoNozKwsAKQeumRpsU8v9QHd0JOzuLPY/E1IknVKttYf1YNf9wcZ
ZkdRo53xbaUfpmfokboxIGBrcz1CIo8ecdPhzyUCAwEAAaOBojCBnzAJBgNVHRME
AjAAMBEGCWCGSAGG+EIBAQQEAwIHgDALBgNVHQ8EBAMCB4AwEwYDVR0lBAwwCgYI
KwYBBQUHAwIwHQYDVR0OBBYEFAkCjJ0nNoVqEM2eWuptNS8dyl6TMB8GA1UdIwQY
MBaAFGIeBJqXvUAwv8YkvZ1cnPvvIcviMB0GA1UdEQQWMBSBEmhvc3RtYXN0ZXJA
YWNtZS5zdzANBgkqhkiG9w0BAQsFAAOCAQEArVfucDv9JuPl7vXQcAaa0PNKCklg
z2c/r+d5TLbXgfZzpInXTvBwBhOdVe5DXhTm2XD8z5SjN57bkLks85IUh5FI5OG7
7WyFY7s9TEOK2REgRJp+AW8pMajVvKJtwEQNJd3NOFrZPk+F522C6S7dMHH5zwbe
LasrL4788qBxdacZxwQJ1TvcdO6jwEn8BZTgYe6QTYD5fZ/+9VjAYuUJOcmNV5Ah
rWdaGL1ciFCqQRj8Ur9MGYa9dps8SDfW9TxZ6L/UJ6CPXXKta56GNOA46gprH1Fz
3qHp3aC0roeznmE7HBwWcy8AEDXdVEcybHGbV9Ww5ztx4a/2cTDE4SgjxA==
-----END CERTIFICATE-----
